Archive member included because of file (symbol)

/Users/yeonwoo-kim/HealthHub/nacl_sdk/pepper_49/lib/clang-newlib_x86_32/Release/liberror_handling.a(error_handling_x86_32.o)
                              clang-newlib/Release/debugging_x86_32.o (EHRequestExceptionsJson)
/Users/yeonwoo-kim/HealthHub/nacl_sdk/pepper_49/lib/clang-newlib_x86_32/Release/liberror_handling.a(string_stream_x86_32.o)
                              /Users/yeonwoo-kim/HealthHub/nacl_sdk/pepper_49/lib/clang-newlib_x86_32/Release/liberror_handling.a(error_handling_x86_32.o) (ssinit)
/Users/yeonwoo-kim/HealthHub/nacl_sdk/pepper_49/toolchain/mac_pnacl/bin/../x86_64-nacl/lib32/libppapi_stub.a(plugin_main_irt_21ce9d26.o)
                              (main)
/Users/yeonwoo-kim/HealthHub/nacl_sdk/pepper_49/toolchain/mac_pnacl/bin/../x86_64-nacl/lib32/libppapi_stub.a(ppapi_plugin_main_399d0cf7.o)
                              /Users/yeonwoo-kim/HealthHub/nacl_sdk/pepper_49/toolchain/mac_pnacl/bin/../x86_64-nacl/lib32/libppapi_stub.a(plugin_main_irt_21ce9d26.o) (PpapiPluginMain)
/Users/yeonwoo-kim/HealthHub/nacl_sdk/pepper_49/toolchain/mac_pnacl/bin/../x86_64-nacl/lib32/libppapi_stub.a(ppapi_plugin_start_8da67623.o)
                              /Users/yeonwoo-kim/HealthHub/nacl_sdk/pepper_49/toolchain/mac_pnacl/bin/../x86_64-nacl/lib32/libppapi_stub.a(ppapi_plugin_main_399d0cf7.o) (PpapiPluginStart)
/Users/yeonwoo-kim/HealthHub/nacl_sdk/pepper_49/toolchain/mac_pnacl/bin/../x86_64-nacl/lib32/libppapi_stub.a(thread_creator_ccf263e1.o)
                              /Users/yeonwoo-kim/HealthHub/nacl_sdk/pepper_49/toolchain/mac_pnacl/bin/../x86_64-nacl/lib32/libppapi_stub.a(ppapi_plugin_start_8da67623.o) (__nacl_register_thread_creator)
/Users/yeonwoo-kim/HealthHub/nacl_sdk/pepper_49/toolchain/mac_pnacl/bin/../x86_64-nacl/lib32/libpthread.a(nc_thread.o)
                              clang-newlib/Release/debugging_x86_32.o (pthread_create)
/Users/yeonwoo-kim/HealthHub/nacl_sdk/pepper_49/toolchain/mac_pnacl/bin/../x86_64-nacl/lib32/libpthread.a(nc_mutex.o)
                              /Users/yeonwoo-kim/HealthHub/nacl_sdk/pepper_49/toolchain/mac_pnacl/bin/../x86_64-nacl/lib32/libpthread.a(nc_thread.o) (pthread_mutex_destroy)
/Users/yeonwoo-kim/HealthHub/nacl_sdk/pepper_49/toolchain/mac_pnacl/bin/../x86_64-nacl/lib32/libpthread.a(nc_condvar.o)
                              /Users/yeonwoo-kim/HealthHub/nacl_sdk/pepper_49/toolchain/mac_pnacl/bin/../x86_64-nacl/lib32/libpthread.a(nc_thread.o) (pthread_cond_destroy)
/Users/yeonwoo-kim/HealthHub/nacl_sdk/pepper_49/toolchain/mac_pnacl/bin/../x86_64-nacl/lib32/libpthread.a(valgrind_annotations.o)
                              /Users/yeonwoo-kim/HealthHub/nacl_sdk/pepper_49/toolchain/mac_pnacl/bin/../x86_64-nacl/lib32/libpthread.a(nc_thread.o) (NACL_AnnotateCondVarWait)
/Users/yeonwoo-kim/HealthHub/nacl_sdk/pepper_49/toolchain/mac_pnacl/bin/../x86_64-nacl/lib32/libpthread.a(nc_init_irt.o)
                              /Users/yeonwoo-kim/HealthHub/nacl_sdk/pepper_49/toolchain/mac_pnacl/bin/../x86_64-nacl/lib32/libpthread.a(nc_mutex.o) (__libnacl_irt_futex)
/Users/yeonwoo-kim/HealthHub/nacl_sdk/pepper_49/toolchain/mac_pnacl/bin/../x86_64-nacl/lib32/libnacl.a(nacl_irt.o)
                              /Users/yeonwoo-kim/HealthHub/nacl_sdk/pepper_49/toolchain/mac_pnacl/bin/../x86_64-nacl/lib32/libpthread.a(nc_init_irt.o) (__libnacl_mandatory_irt_query)
/Users/yeonwoo-kim/HealthHub/nacl_sdk/pepper_49/toolchain/mac_pnacl/bin/../x86_64-nacl/lib32/libnacl.a(_exit.o)
                              (_exit)
/Users/yeonwoo-kim/HealthHub/nacl_sdk/pepper_49/toolchain/mac_pnacl/bin/../x86_64-nacl/lib32/libnacl.a(mmap.o)
                              /Users/yeonwoo-kim/HealthHub/nacl_sdk/pepper_49/lib/clang-newlib_x86_32/Release/liberror_handling.a(error_handling_x86_32.o) (mmap)
/Users/yeonwoo-kim/HealthHub/nacl_sdk/pepper_49/toolchain/mac_pnacl/bin/../x86_64-nacl/lib32/libnacl.a(munmap.o)
                              /Users/yeonwoo-kim/HealthHub/nacl_sdk/pepper_49/lib/clang-newlib_x86_32/Release/liberror_handling.a(error_handling_x86_32.o) (munmap)
/Users/yeonwoo-kim/HealthHub/nacl_sdk/pepper_49/toolchain/mac_pnacl/bin/../x86_64-nacl/lib32/libnacl.a(nacl_interface_query.o)
                              /Users/yeonwoo-kim/HealthHub/nacl_sdk/pepper_49/lib/clang-newlib_x86_32/Release/liberror_handling.a(error_handling_x86_32.o) (nacl_interface_query)
/Users/yeonwoo-kim/HealthHub/nacl_sdk/pepper_49/toolchain/mac_pnacl/bin/../x86_64-nacl/lib32/libnacl.a(write.o)
                              /Users/yeonwoo-kim/HealthHub/nacl_sdk/pepper_49/toolchain/mac_pnacl/bin/../x86_64-nacl/lib32/libppapi_stub.a(ppapi_plugin_start_8da67623.o) (write)
/Users/yeonwoo-kim/HealthHub/nacl_sdk/pepper_49/toolchain/mac_pnacl/bin/../x86_64-nacl/lib32/libnacl.a(environ.o)
                              /Users/yeonwoo-kim/HealthHub/nacl_sdk/pepper_49/toolchain/mac_pnacl/bin/../x86_64-nacl/lib32/libppapi_stub.a(ppapi_plugin_start_8da67623.o) (environ)
/Users/yeonwoo-kim/HealthHub/nacl_sdk/pepper_49/toolchain/mac_pnacl/bin/../x86_64-nacl/lib32/libnacl.a(malloc.o)
                              /Users/yeonwoo-kim/HealthHub/nacl_sdk/pepper_49/toolchain/mac_pnacl/bin/../x86_64-nacl/lib32/libpthread.a(nc_thread.o) (calloc)
/Users/yeonwoo-kim/HealthHub/nacl_sdk/pepper_49/toolchain/mac_pnacl/bin/../x86_64-nacl/lib32/libnacl.a(start.o)
                              (_start)
/Users/yeonwoo-kim/HealthHub/nacl_sdk/pepper_49/toolchain/mac_pnacl/bin/../x86_64-nacl/lib32/libnacl.a(nacl_read_tp.o)
                              /Users/yeonwoo-kim/HealthHub/nacl_sdk/pepper_49/toolchain/mac_pnacl/bin/../x86_64-nacl/lib32/libpthread.a(nc_thread.o) (__nacl_read_tp)
/Users/yeonwoo-kim/HealthHub/nacl_sdk/pepper_49/toolchain/mac_pnacl/bin/../x86_64-nacl/lib32/libnacl.a(pthread_initialize_minimal.o)
                              /Users/yeonwoo-kim/HealthHub/nacl_sdk/pepper_49/toolchain/mac_pnacl/bin/../x86_64-nacl/lib32/libpthread.a(nc_thread.o) (__pthread_initialize_minimal)
/Users/yeonwoo-kim/HealthHub/nacl_sdk/pepper_49/toolchain/mac_pnacl/bin/../x86_64-nacl/lib32/libnacl.a(tls.o)
                              /Users/yeonwoo-kim/HealthHub/nacl_sdk/pepper_49/toolchain/mac_pnacl/bin/../x86_64-nacl/lib32/libpthread.a(nc_thread.o) (__nacl_tls_combined_size)
/Users/yeonwoo-kim/HealthHub/nacl_sdk/pepper_49/toolchain/mac_pnacl/bin/../x86_64-nacl/lib32/libnacl.a(nacl_irt_init.o)
                              /Users/yeonwoo-kim/HealthHub/nacl_sdk/pepper_49/toolchain/mac_pnacl/bin/../x86_64-nacl/lib32/libnacl.a(start.o) (__libnacl_irt_init)
/Users/yeonwoo-kim/HealthHub/nacl_sdk/pepper_49/toolchain/mac_pnacl/bin/../x86_64-nacl/lib32/libnacl.a(nacl_tls_get.o)
                              /Users/yeonwoo-kim/HealthHub/nacl_sdk/pepper_49/toolchain/mac_pnacl/bin/../x86_64-nacl/lib32/libnacl.a(nacl_read_tp.o) (nacl_tls_get)
/Users/yeonwoo-kim/HealthHub/nacl_sdk/pepper_49/toolchain/mac_pnacl/bin/../x86_64-nacl/lib32/libnacl.a(nacl_tls_init.o)
                              /Users/yeonwoo-kim/HealthHub/nacl_sdk/pepper_49/toolchain/mac_pnacl/bin/../x86_64-nacl/lib32/libnacl.a(pthread_initialize_minimal.o) (nacl_tls_init)
/Users/yeonwoo-kim/HealthHub/nacl_sdk/pepper_49/toolchain/mac_pnacl/bin/../x86_64-nacl/lib32/libnacl.a(abort.o)
                              /Users/yeonwoo-kim/HealthHub/nacl_sdk/pepper_49/toolchain/mac_pnacl/bin/../x86_64-nacl/lib32/libnacl.a(malloc.o) (abort)
/Users/yeonwoo-kim/HealthHub/nacl_sdk/pepper_49/toolchain/mac_pnacl/bin/../x86_64-nacl/lib32/libnacl.a(sched_yield.o)
                              /Users/yeonwoo-kim/HealthHub/nacl_sdk/pepper_49/toolchain/mac_pnacl/bin/../x86_64-nacl/lib32/libnacl.a(malloc.o) (sched_yield)
/Users/yeonwoo-kim/HealthHub/nacl_sdk/pepper_49/toolchain/mac_pnacl/bin/../x86_64-nacl/lib32/libnacl.a(sysconf.o)
                              /Users/yeonwoo-kim/HealthHub/nacl_sdk/pepper_49/toolchain/mac_pnacl/bin/../x86_64-nacl/lib32/libnacl.a(malloc.o) (sysconf)
/Users/yeonwoo-kim/HealthHub/nacl_sdk/pepper_49/toolchain/mac_pnacl/bin/../x86_64-nacl/lib32/libcrt_common.a(lib_a-atexit.o)
                              /Users/yeonwoo-kim/HealthHub/nacl_sdk/pepper_49/toolchain/mac_pnacl/bin/../x86_64-nacl/lib32/libnacl.a(start.o) (atexit)
/Users/yeonwoo-kim/HealthHub/nacl_sdk/pepper_49/toolchain/mac_pnacl/bin/../x86_64-nacl/lib32/libcrt_common.a(lib_a-errno.o)
                              /Users/yeonwoo-kim/HealthHub/nacl_sdk/pepper_49/toolchain/mac_pnacl/bin/../x86_64-nacl/lib32/libnacl.a(nacl_irt.o) (__errno)
/Users/yeonwoo-kim/HealthHub/nacl_sdk/pepper_49/toolchain/mac_pnacl/bin/../x86_64-nacl/lib32/libcrt_common.a(lib_a-exit.o)
                              (exit)
/Users/yeonwoo-kim/HealthHub/nacl_sdk/pepper_49/toolchain/mac_pnacl/bin/../x86_64-nacl/lib32/libcrt_common.a(lib_a-fflush.o)
                              clang-newlib/Release/debugging_x86_32.o (fflush)
/Users/yeonwoo-kim/HealthHub/nacl_sdk/pepper_49/toolchain/mac_pnacl/bin/../x86_64-nacl/lib32/libcrt_common.a(lib_a-findfp.o)
                              /Users/yeonwoo-kim/HealthHub/nacl_sdk/pepper_49/toolchain/mac_pnacl/bin/../x86_64-nacl/lib32/libcrt_common.a(lib_a-fflush.o) (__sinit)
/Users/yeonwoo-kim/HealthHub/nacl_sdk/pepper_49/toolchain/mac_pnacl/bin/../x86_64-nacl/lib32/libcrt_common.a(lib_a-fini.o)
                              /Users/yeonwoo-kim/HealthHub/nacl_sdk/pepper_49/toolchain/mac_pnacl/bin/../x86_64-nacl/lib32/libnacl.a(start.o) (__libc_fini_array)
/Users/yeonwoo-kim/HealthHub/nacl_sdk/pepper_49/toolchain/mac_pnacl/bin/../x86_64-nacl/lib32/libcrt_common.a(lib_a-fprintf.o)
                              clang-newlib/Release/debugging_x86_32.o (fprintf)
/Users/yeonwoo-kim/HealthHub/nacl_sdk/pepper_49/toolchain/mac_pnacl/bin/../x86_64-nacl/lib32/libcrt_common.a(lib_a-fwalk.o)
                              /Users/yeonwoo-kim/HealthHub/nacl_sdk/pepper_49/toolchain/mac_pnacl/bin/../x86_64-nacl/lib32/libcrt_common.a(lib_a-findfp.o) (_fwalk)
/Users/yeonwoo-kim/HealthHub/nacl_sdk/pepper_49/toolchain/mac_pnacl/bin/../x86_64-nacl/lib32/libcrt_common.a(lib_a-fwrite.o)
                              /Users/yeonwoo-kim/HealthHub/nacl_sdk/pepper_49/lib/clang-newlib_x86_32/Release/liberror_handling.a(error_handling_x86_32.o) (fwrite)
/Users/yeonwoo-kim/HealthHub/nacl_sdk/pepper_49/toolchain/mac_pnacl/bin/../x86_64-nacl/lib32/libcrt_common.a(lib_a-getenv.o)
                              /Users/yeonwoo-kim/HealthHub/nacl_sdk/pepper_49/toolchain/mac_pnacl/bin/../x86_64-nacl/lib32/libpthread.a(valgrind_annotations.o) (getenv)
/Users/yeonwoo-kim/HealthHub/nacl_sdk/pepper_49/toolchain/mac_pnacl/bin/../x86_64-nacl/lib32/libcrt_common.a(lib_a-getenv_r.o)
                              /Users/yeonwoo-kim/HealthHub/nacl_sdk/pepper_49/toolchain/mac_pnacl/bin/../x86_64-nacl/lib32/libcrt_common.a(lib_a-getenv.o) (_findenv_r)
/Users/yeonwoo-kim/HealthHub/nacl_sdk/pepper_49/toolchain/mac_pnacl/bin/../x86_64-nacl/lib32/libcrt_common.a(lib_a-impure.o)
                              /Users/yeonwoo-kim/HealthHub/nacl_sdk/pepper_49/toolchain/mac_pnacl/bin/../x86_64-nacl/lib32/libpthread.a(nc_thread.o) (__newlib_thread_exit)
/Users/yeonwoo-kim/HealthHub/nacl_sdk/pepper_49/toolchain/mac_pnacl/bin/../x86_64-nacl/lib32/libcrt_common.a(lib_a-init.o)
                              /Users/yeonwoo-kim/HealthHub/nacl_sdk/pepper_49/toolchain/mac_pnacl/bin/../x86_64-nacl/lib32/libnacl.a(start.o) (__libc_init_array)
/Users/yeonwoo-kim/HealthHub/nacl_sdk/pepper_49/toolchain/mac_pnacl/bin/../x86_64-nacl/lib32/libcrt_common.a(lib_a-memcpy.o)
                              /Users/yeonwoo-kim/HealthHub/nacl_sdk/pepper_49/lib/clang-newlib_x86_32/Release/liberror_handling.a(string_stream_x86_32.o) (memcpy)
/Users/yeonwoo-kim/HealthHub/nacl_sdk/pepper_49/toolchain/mac_pnacl/bin/../x86_64-nacl/lib32/libcrt_common.a(lib_a-memset.o)
                              /Users/yeonwoo-kim/HealthHub/nacl_sdk/pepper_49/toolchain/mac_pnacl/bin/../x86_64-nacl/lib32/libnacl.a(malloc.o) (memset)
/Users/yeonwoo-kim/HealthHub/nacl_sdk/pepper_49/toolchain/mac_pnacl/bin/../x86_64-nacl/lib32/libcrt_common.a(lib_a-sleep.o)
                              /Users/yeonwoo-kim/HealthHub/nacl_sdk/pepper_49/lib/clang-newlib_x86_32/Release/liberror_handling.a(error_handling_x86_32.o) (sleep)
/Users/yeonwoo-kim/HealthHub/nacl_sdk/pepper_49/toolchain/mac_pnacl/bin/../x86_64-nacl/lib32/libcrt_common.a(lib_a-stdio.o)
                              /Users/yeonwoo-kim/HealthHub/nacl_sdk/pepper_49/toolchain/mac_pnacl/bin/../x86_64-nacl/lib32/libcrt_common.a(lib_a-findfp.o) (__sclose)
/Users/yeonwoo-kim/HealthHub/nacl_sdk/pepper_49/toolchain/mac_pnacl/bin/../x86_64-nacl/lib32/libcrt_common.a(lib_a-strcat.o)
                              clang-newlib/Release/debugging_x86_32.o (strcat)
/Users/yeonwoo-kim/HealthHub/nacl_sdk/pepper_49/toolchain/mac_pnacl/bin/../x86_64-nacl/lib32/libcrt_common.a(lib_a-strcmp.o)
                              clang-newlib/Release/debugging_x86_32.o (strcmp)
/Users/yeonwoo-kim/HealthHub/nacl_sdk/pepper_49/toolchain/mac_pnacl/bin/../x86_64-nacl/lib32/libcrt_common.a(lib_a-strcpy.o)
                              /Users/yeonwoo-kim/HealthHub/nacl_sdk/pepper_49/toolchain/mac_pnacl/bin/../x86_64-nacl/lib32/libcrt_common.a(lib_a-strcat.o) (strcpy)
/Users/yeonwoo-kim/HealthHub/nacl_sdk/pepper_49/toolchain/mac_pnacl/bin/../x86_64-nacl/lib32/libcrt_common.a(lib_a-strlen.o)
                              clang-newlib/Release/debugging_x86_32.o (strlen)
/Users/yeonwoo-kim/HealthHub/nacl_sdk/pepper_49/toolchain/mac_pnacl/bin/../x86_64-nacl/lib32/libcrt_common.a(lib_a-strncmp.o)
                              /Users/yeonwoo-kim/HealthHub/nacl_sdk/pepper_49/toolchain/mac_pnacl/bin/../x86_64-nacl/lib32/libcrt_common.a(lib_a-getenv_r.o) (strncmp)
/Users/yeonwoo-kim/HealthHub/nacl_sdk/pepper_49/toolchain/mac_pnacl/bin/../x86_64-nacl/lib32/libcrt_common.a(lib_a-vfprintf.o)
                              /Users/yeonwoo-kim/HealthHub/nacl_sdk/pepper_49/toolchain/mac_pnacl/bin/../x86_64-nacl/lib32/libcrt_common.a(lib_a-fprintf.o) (_vfprintf_r)
/Users/yeonwoo-kim/HealthHub/nacl_sdk/pepper_49/toolchain/mac_pnacl/bin/../x86_64-nacl/lib32/libcrt_common.a(lib_a-vsnprintf.o)
                              /Users/yeonwoo-kim/HealthHub/nacl_sdk/pepper_49/lib/clang-newlib_x86_32/Release/liberror_handling.a(string_stream_x86_32.o) (vsnprintf)
/Users/yeonwoo-kim/HealthHub/nacl_sdk/pepper_49/toolchain/mac_pnacl/bin/../x86_64-nacl/lib32/libcrt_common.a(lib_a-vsprintf.o)
                              /Users/yeonwoo-kim/HealthHub/nacl_sdk/pepper_49/lib/clang-newlib_x86_32/Release/liberror_handling.a(string_stream_x86_32.o) (vsprintf)
/Users/yeonwoo-kim/HealthHub/nacl_sdk/pepper_49/toolchain/mac_pnacl/bin/../x86_64-nacl/lib32/libcrt_common.a(lib_a-wcrtomb.o)
                              /Users/yeonwoo-kim/HealthHub/nacl_sdk/pepper_49/toolchain/mac_pnacl/bin/../x86_64-nacl/lib32/libcrt_common.a(lib_a-vfprintf.o) (_wcrtomb_r)
/Users/yeonwoo-kim/HealthHub/nacl_sdk/pepper_49/toolchain/mac_pnacl/bin/../x86_64-nacl/lib32/libcrt_common.a(lib_a-wcsrtombs.o)
                              /Users/yeonwoo-kim/HealthHub/nacl_sdk/pepper_49/toolchain/mac_pnacl/bin/../x86_64-nacl/lib32/libcrt_common.a(lib_a-vfprintf.o) (_wcsrtombs_r)
/Users/yeonwoo-kim/HealthHub/nacl_sdk/pepper_49/toolchain/mac_pnacl/bin/../x86_64-nacl/lib32/libcrt_common.a(lib_a-wctomb_r.o)
                              /Users/yeonwoo-kim/HealthHub/nacl_sdk/pepper_49/toolchain/mac_pnacl/bin/../x86_64-nacl/lib32/libcrt_common.a(lib_a-wcrtomb.o) (__wctomb)
/Users/yeonwoo-kim/HealthHub/nacl_sdk/pepper_49/toolchain/mac_pnacl/bin/../x86_64-nacl/lib32/libcrt_common.a(lib_a-wsetup.o)
                              /Users/yeonwoo-kim/HealthHub/nacl_sdk/pepper_49/toolchain/mac_pnacl/bin/../x86_64-nacl/lib32/libcrt_common.a(lib_a-vfprintf.o) (__swsetup_r)
/Users/yeonwoo-kim/HealthHub/nacl_sdk/pepper_49/toolchain/mac_pnacl/bin/../x86_64-nacl/lib32/libcrt_common.a(lib_a-__atexit.o)
                              /Users/yeonwoo-kim/HealthHub/nacl_sdk/pepper_49/toolchain/mac_pnacl/bin/../x86_64-nacl/lib32/libcrt_common.a(lib_a-atexit.o) (__register_exitproc)
/Users/yeonwoo-kim/HealthHub/nacl_sdk/pepper_49/toolchain/mac_pnacl/bin/../x86_64-nacl/lib32/libcrt_common.a(lib_a-__call_atexit.o)
                              /Users/yeonwoo-kim/HealthHub/nacl_sdk/pepper_49/toolchain/mac_pnacl/bin/../x86_64-nacl/lib32/libcrt_common.a(lib_a-__atexit.o) (__atexit_lock)
/Users/yeonwoo-kim/HealthHub/nacl_sdk/pepper_49/toolchain/mac_pnacl/bin/../x86_64-nacl/lib32/libcrt_common.a(lib_a-dtoa.o)
                              /Users/yeonwoo-kim/HealthHub/nacl_sdk/pepper_49/toolchain/mac_pnacl/bin/../x86_64-nacl/lib32/libcrt_common.a(lib_a-vfprintf.o) (_dtoa_r)
/Users/yeonwoo-kim/HealthHub/nacl_sdk/pepper_49/toolchain/mac_pnacl/bin/../x86_64-nacl/lib32/libcrt_common.a(lib_a-envlock.o)
                              /Users/yeonwoo-kim/HealthHub/nacl_sdk/pepper_49/toolchain/mac_pnacl/bin/../x86_64-nacl/lib32/libcrt_common.a(lib_a-getenv_r.o) (__env_lock)
/Users/yeonwoo-kim/HealthHub/nacl_sdk/pepper_49/toolchain/mac_pnacl/bin/../x86_64-nacl/lib32/libcrt_common.a(lib_a-fclose.o)
                              /Users/yeonwoo-kim/HealthHub/nacl_sdk/pepper_49/toolchain/mac_pnacl/bin/../x86_64-nacl/lib32/libcrt_common.a(lib_a-findfp.o) (_fclose_r)
/Users/yeonwoo-kim/HealthHub/nacl_sdk/pepper_49/toolchain/mac_pnacl/bin/../x86_64-nacl/lib32/libcrt_common.a(lib_a-fvwrite.o)
                              /Users/yeonwoo-kim/HealthHub/nacl_sdk/pepper_49/toolchain/mac_pnacl/bin/../x86_64-nacl/lib32/libcrt_common.a(lib_a-fwrite.o) (__sfvwrite_r)
/Users/yeonwoo-kim/HealthHub/nacl_sdk/pepper_49/toolchain/mac_pnacl/bin/../x86_64-nacl/lib32/libcrt_common.a(lib_a-locale.o)
                              /Users/yeonwoo-kim/HealthHub/nacl_sdk/pepper_49/toolchain/mac_pnacl/bin/../x86_64-nacl/lib32/libcrt_common.a(lib_a-vfprintf.o) (__locale_charset)
/Users/yeonwoo-kim/HealthHub/nacl_sdk/pepper_49/toolchain/mac_pnacl/bin/../x86_64-nacl/lib32/libcrt_common.a(lib_a-makebuf.o)
                              /Users/yeonwoo-kim/HealthHub/nacl_sdk/pepper_49/toolchain/mac_pnacl/bin/../x86_64-nacl/lib32/libcrt_common.a(lib_a-wsetup.o) (__smakebuf_r)
/Users/yeonwoo-kim/HealthHub/nacl_sdk/pepper_49/toolchain/mac_pnacl/bin/../x86_64-nacl/lib32/libcrt_common.a(lib_a-mbtowc_r.o)
                              /Users/yeonwoo-kim/HealthHub/nacl_sdk/pepper_49/toolchain/mac_pnacl/bin/../x86_64-nacl/lib32/libcrt_common.a(lib_a-locale.o) (__ascii_mbtowc)
/Users/yeonwoo-kim/HealthHub/nacl_sdk/pepper_49/toolchain/mac_pnacl/bin/../x86_64-nacl/lib32/libcrt_common.a(lib_a-memchr.o)
                              /Users/yeonwoo-kim/HealthHub/nacl_sdk/pepper_49/toolchain/mac_pnacl/bin/../x86_64-nacl/lib32/libcrt_common.a(lib_a-vfprintf.o) (memchr)
/Users/yeonwoo-kim/HealthHub/nacl_sdk/pepper_49/toolchain/mac_pnacl/bin/../x86_64-nacl/lib32/libcrt_common.a(lib_a-memmove.o)
                              /Users/yeonwoo-kim/HealthHub/nacl_sdk/pepper_49/toolchain/mac_pnacl/bin/../x86_64-nacl/lib32/libcrt_common.a(lib_a-fvwrite.o) (memmove)
/Users/yeonwoo-kim/HealthHub/nacl_sdk/pepper_49/toolchain/mac_pnacl/bin/../x86_64-nacl/lib32/libcrt_common.a(lib_a-mprec.o)
                              /Users/yeonwoo-kim/HealthHub/nacl_sdk/pepper_49/toolchain/mac_pnacl/bin/../x86_64-nacl/lib32/libcrt_common.a(lib_a-dtoa.o) (_Balloc)
/Users/yeonwoo-kim/HealthHub/nacl_sdk/pepper_49/toolchain/mac_pnacl/bin/../x86_64-nacl/lib32/libcrt_common.a(lib_a-s_fpclassify.o)
                              /Users/yeonwoo-kim/HealthHub/nacl_sdk/pepper_49/toolchain/mac_pnacl/bin/../x86_64-nacl/lib32/libcrt_common.a(lib_a-vfprintf.o) (__fpclassifyd)
/Users/yeonwoo-kim/HealthHub/nacl_sdk/pepper_49/toolchain/mac_pnacl/bin/../x86_64-nacl/lib32/libcrt_common.a(lib_a-s_frexp.o)
                              /Users/yeonwoo-kim/HealthHub/nacl_sdk/pepper_49/toolchain/mac_pnacl/bin/../x86_64-nacl/lib32/libcrt_common.a(lib_a-vfprintf.o) (frexp)
/Users/yeonwoo-kim/HealthHub/nacl_sdk/pepper_49/toolchain/mac_pnacl/bin/../x86_64-nacl/lib32/libcrt_common.a(lib_a-strcasecmp.o)
                              /Users/yeonwoo-kim/HealthHub/nacl_sdk/pepper_49/toolchain/mac_pnacl/bin/../x86_64-nacl/lib32/libcrt_common.a(lib_a-locale.o) (strcasecmp)
/Users/yeonwoo-kim/HealthHub/nacl_sdk/pepper_49/toolchain/mac_pnacl/bin/../x86_64-nacl/lib32/libcrt_common.a(lib_a-strchr.o)
                              /Users/yeonwoo-kim/HealthHub/nacl_sdk/pepper_49/toolchain/mac_pnacl/bin/../x86_64-nacl/lib32/libcrt_common.a(lib_a-locale.o) (strchr)
/Users/yeonwoo-kim/HealthHub/nacl_sdk/pepper_49/toolchain/mac_pnacl/bin/../x86_64-nacl/lib32/libcrt_common.a(lib_a-strlcpy.o)
                              /Users/yeonwoo-kim/HealthHub/nacl_sdk/pepper_49/toolchain/mac_pnacl/bin/../x86_64-nacl/lib32/libcrt_common.a(lib_a-locale.o) (strlcpy)
/Users/yeonwoo-kim/HealthHub/nacl_sdk/pepper_49/toolchain/mac_pnacl/bin/../x86_64-nacl/lib32/libcrt_common.a(lib_a-strncasecmp.o)
                              /Users/yeonwoo-kim/HealthHub/nacl_sdk/pepper_49/toolchain/mac_pnacl/bin/../x86_64-nacl/lib32/libcrt_common.a(lib_a-locale.o) (strncasecmp)
/Users/yeonwoo-kim/HealthHub/nacl_sdk/pepper_49/toolchain/mac_pnacl/bin/../x86_64-nacl/lib32/libcrt_common.a(lib_a-strncpy.o)
                              /Users/yeonwoo-kim/HealthHub/nacl_sdk/pepper_49/toolchain/mac_pnacl/bin/../x86_64-nacl/lib32/libcrt_common.a(lib_a-vfprintf.o) (strncpy)
/Users/yeonwoo-kim/HealthHub/nacl_sdk/pepper_49/toolchain/mac_pnacl/bin/../x86_64-nacl/lib32/libcrt_common.a(lib_a-strtol.o)
                              /Users/yeonwoo-kim/HealthHub/nacl_sdk/pepper_49/toolchain/mac_pnacl/bin/../x86_64-nacl/lib32/libcrt_common.a(lib_a-locale.o) (_strtol_r)
/Users/yeonwoo-kim/HealthHub/nacl_sdk/pepper_49/toolchain/mac_pnacl/bin/../x86_64-nacl/lib32/libcrt_common.a(lib_a-svfprintf.o)
                              /Users/yeonwoo-kim/HealthHub/nacl_sdk/pepper_49/toolchain/mac_pnacl/bin/../x86_64-nacl/lib32/libcrt_common.a(lib_a-vsnprintf.o) (_svfprintf_r)
/Users/yeonwoo-kim/HealthHub/nacl_sdk/pepper_49/toolchain/mac_pnacl/bin/../x86_64-nacl/lib32/libcrt_common.a(lib_a-vfiprintf.o)
                              /Users/yeonwoo-kim/HealthHub/nacl_sdk/pepper_49/toolchain/mac_pnacl/bin/../x86_64-nacl/lib32/libcrt_common.a(lib_a-vfprintf.o) (__sprint_r)
/Users/yeonwoo-kim/HealthHub/nacl_sdk/pepper_49/toolchain/mac_pnacl/bin/../x86_64-nacl/lib32/libcrt_common.a(lib_a-wcsnrtombs.o)
                              /Users/yeonwoo-kim/HealthHub/nacl_sdk/pepper_49/toolchain/mac_pnacl/bin/../x86_64-nacl/lib32/libcrt_common.a(lib_a-wcsrtombs.o) (_wcsnrtombs_r)
/Users/yeonwoo-kim/HealthHub/nacl_sdk/pepper_49/toolchain/mac_pnacl/bin/../x86_64-nacl/lib32/libcrt_common.a(lib_a-ctype_.o)
                              /Users/yeonwoo-kim/HealthHub/nacl_sdk/pepper_49/toolchain/mac_pnacl/bin/../x86_64-nacl/lib32/libcrt_common.a(lib_a-strcasecmp.o) (__ctype_ptr__)
/Users/yeonwoo-kim/HealthHub/nacl_sdk/pepper_49/toolchain/mac_pnacl/bin/../x86_64-nacl/lib32/libcrt_common.a(lib_a-fputwc.o)
                              /Users/yeonwoo-kim/HealthHub/nacl_sdk/pepper_49/toolchain/mac_pnacl/bin/../x86_64-nacl/lib32/libcrt_common.a(lib_a-vfiprintf.o) (_fputwc_r)
/Users/yeonwoo-kim/HealthHub/nacl_sdk/pepper_49/toolchain/mac_pnacl/bin/../x86_64-nacl/lib32/libcrt_common.a(lib_a-svfiprintf.o)
                              /Users/yeonwoo-kim/HealthHub/nacl_sdk/pepper_49/toolchain/mac_pnacl/bin/../x86_64-nacl/lib32/libcrt_common.a(lib_a-svfprintf.o) (__ssprint_r)
/Users/yeonwoo-kim/HealthHub/nacl_sdk/pepper_49/toolchain/mac_pnacl/bin/../x86_64-nacl/lib32/libcrt_common.a(lib_a-wbuf.o)
                              /Users/yeonwoo-kim/HealthHub/nacl_sdk/pepper_49/toolchain/mac_pnacl/bin/../x86_64-nacl/lib32/libcrt_common.a(lib_a-fputwc.o) (__swbuf_r)
/Users/yeonwoo-kim/HealthHub/nacl_sdk/pepper_49/toolchain/mac_pnacl/bin/../x86_64-nacl/lib32/libnacl.a(close.o)
                              /Users/yeonwoo-kim/HealthHub/nacl_sdk/pepper_49/toolchain/mac_pnacl/bin/../x86_64-nacl/lib32/libcrt_common.a(lib_a-stdio.o) (close)
/Users/yeonwoo-kim/HealthHub/nacl_sdk/pepper_49/toolchain/mac_pnacl/bin/../x86_64-nacl/lib32/libnacl.a(fstat.o)
                              /Users/yeonwoo-kim/HealthHub/nacl_sdk/pepper_49/toolchain/mac_pnacl/bin/../x86_64-nacl/lib32/libcrt_common.a(lib_a-makebuf.o) (fstat)
/Users/yeonwoo-kim/HealthHub/nacl_sdk/pepper_49/toolchain/mac_pnacl/bin/../x86_64-nacl/lib32/libnacl.a(isatty.o)
                              /Users/yeonwoo-kim/HealthHub/nacl_sdk/pepper_49/toolchain/mac_pnacl/bin/../x86_64-nacl/lib32/libcrt_common.a(lib_a-makebuf.o) (isatty)
/Users/yeonwoo-kim/HealthHub/nacl_sdk/pepper_49/toolchain/mac_pnacl/bin/../x86_64-nacl/lib32/libnacl.a(lseek.o)
                              /Users/yeonwoo-kim/HealthHub/nacl_sdk/pepper_49/toolchain/mac_pnacl/bin/../x86_64-nacl/lib32/libcrt_common.a(lib_a-stdio.o) (lseek)
/Users/yeonwoo-kim/HealthHub/nacl_sdk/pepper_49/toolchain/mac_pnacl/bin/../x86_64-nacl/lib32/libnacl.a(nanosleep.o)
                              /Users/yeonwoo-kim/HealthHub/nacl_sdk/pepper_49/toolchain/mac_pnacl/bin/../x86_64-nacl/lib32/libcrt_common.a(lib_a-sleep.o) (nanosleep)
/Users/yeonwoo-kim/HealthHub/nacl_sdk/pepper_49/toolchain/mac_pnacl/bin/../x86_64-nacl/lib32/libnacl.a(nacl_irt_fdio.o)
                              /Users/yeonwoo-kim/HealthHub/nacl_sdk/pepper_49/toolchain/mac_pnacl/bin/../x86_64-nacl/lib32/libnacl.a(isatty.o) (__libnacl_irt_dev_fdio_init)
/Users/yeonwoo-kim/HealthHub/nacl_sdk/pepper_49/toolchain/mac_pnacl/bin/../x86_64-nacl/lib32/libnacl.a(read.o)
                              /Users/yeonwoo-kim/HealthHub/nacl_sdk/pepper_49/toolchain/mac_pnacl/bin/../x86_64-nacl/lib32/libcrt_common.a(lib_a-stdio.o) (read)
/Users/yeonwoo-kim/HealthHub/nacl_sdk/pepper_49/toolchain/mac_pnacl/bin/../lib/clang/3.7.0/lib/i686-nacl/libgcc.a(udivdi3.o)
                              /Users/yeonwoo-kim/HealthHub/nacl_sdk/pepper_49/toolchain/mac_pnacl/bin/../x86_64-nacl/lib32/libcrt_common.a(lib_a-vfprintf.o) (__udivdi3)
/Users/yeonwoo-kim/HealthHub/nacl_sdk/pepper_49/toolchain/mac_pnacl/bin/../lib/clang/3.7.0/lib/i686-nacl/libgcc.a(udivmoddi4.o)
                              /Users/yeonwoo-kim/HealthHub/nacl_sdk/pepper_49/toolchain/mac_pnacl/bin/../lib/clang/3.7.0/lib/i686-nacl/libgcc.a(udivdi3.o) (__udivmoddi4)
/Users/yeonwoo-kim/HealthHub/nacl_sdk/pepper_49/toolchain/mac_pnacl/bin/../lib/clang/3.7.0/lib/i686-nacl/libgcc.a(umoddi3.o)
                              /Users/yeonwoo-kim/HealthHub/nacl_sdk/pepper_49/toolchain/mac_pnacl/bin/../x86_64-nacl/lib32/libcrt_common.a(lib_a-vfprintf.o) (__umoddi3)
/Users/yeonwoo-kim/HealthHub/nacl_sdk/pepper_49/toolchain/mac_pnacl/bin/../lib/clang/3.7.0/lib/i686-nacl/libgcc_eh.a(unwind-dw2-fde-glibc.o)
                              /Users/yeonwoo-kim/HealthHub/nacl_sdk/pepper_49/toolchain/mac_pnacl/bin/../lib/clang/3.7.0/lib/i686-nacl/crtbeginT.o (__register_frame_info)

Allocating common symbols
Common symbol       size              file

__nacl_irt_query    0x4               /Users/yeonwoo-kim/HealthHub/nacl_sdk/pepper_49/toolchain/mac_pnacl/bin/../x86_64-nacl/lib32/libnacl.a(nacl_irt.o)
__libnacl_irt_dev_filename
                    0x40              /Users/yeonwoo-kim/HealthHub/nacl_sdk/pepper_49/toolchain/mac_pnacl/bin/../x86_64-nacl/lib32/libnacl.a(nacl_irt.o)
__nc_thread_initialized
                    0x4               /Users/yeonwoo-kim/HealthHub/nacl_sdk/pepper_49/toolchain/mac_pnacl/bin/../x86_64-nacl/lib32/libpthread.a(nc_thread.o)
g_PPAPIThread       0x4               clang-newlib/Release/debugging_x86_32.o
__libnacl_irt_clock
                    0x8               /Users/yeonwoo-kim/HealthHub/nacl_sdk/pepper_49/toolchain/mac_pnacl/bin/../x86_64-nacl/lib32/libnacl.a(nacl_irt.o)
__nc_thread_management_lock
                    0x14              /Users/yeonwoo-kim/HealthHub/nacl_sdk/pepper_49/toolchain/mac_pnacl/bin/../x86_64-nacl/lib32/libpthread.a(nc_thread.o)
__libnacl_irt_futex
                    0x8               /Users/yeonwoo-kim/HealthHub/nacl_sdk/pepper_49/toolchain/mac_pnacl/bin/../x86_64-nacl/lib32/libpthread.a(nc_init_irt.o)
g_Instance          0x4               clang-newlib/Release/debugging_x86_32.o
__nc_memory_block_counter
                    0x8               /Users/yeonwoo-kim/HealthHub/nacl_sdk/pepper_49/toolchain/mac_pnacl/bin/../x86_64-nacl/lib32/libpthread.a(nc_thread.o)
__nacl_initial_thread_stack_end
                    0x4               /Users/yeonwoo-kim/HealthHub/nacl_sdk/pepper_49/toolchain/mac_pnacl/bin/../x86_64-nacl/lib32/libnacl.a(start.o)
__libnacl_irt_memory
                    0xc               /Users/yeonwoo-kim/HealthHub/nacl_sdk/pepper_49/toolchain/mac_pnacl/bin/../x86_64-nacl/lib32/libnacl.a(nacl_irt.o)
__nc_initial_thread_id
                    0x4               /Users/yeonwoo-kim/HealthHub/nacl_sdk/pepper_49/toolchain/mac_pnacl/bin/../x86_64-nacl/lib32/libpthread.a(nc_thread.o)
__libnacl_irt_dev_fdio
                    0x38              /Users/yeonwoo-kim/HealthHub/nacl_sdk/pepper_49/toolchain/mac_pnacl/bin/../x86_64-nacl/lib32/libnacl.a(nacl_irt.o)
g_NexeThread        0x4               clang-newlib/Release/debugging_x86_32.o
__libnacl_irt_basic
                    0x18              /Users/yeonwoo-kim/HealthHub/nacl_sdk/pepper_49/toolchain/mac_pnacl/bin/../x86_64-nacl/lib32/libnacl.a(nacl_irt.o)
__nc_thread_memory_blocks
                    0x10              /Users/yeonwoo-kim/HealthHub/nacl_sdk/pepper_49/toolchain/mac_pnacl/bin/../x86_64-nacl/lib32/libpthread.a(nc_thread.o)
__libnacl_irt_thread
                    0xc               /Users/yeonwoo-kim/HealthHub/nacl_sdk/pepper_49/toolchain/mac_pnacl/bin/../x86_64-nacl/lib32/libpthread.a(nc_thread.o)
__libnacl_irt_tls   0x8               /Users/yeonwoo-kim/HealthHub/nacl_sdk/pepper_49/toolchain/mac_pnacl/bin/../x86_64-nacl/lib32/libnacl.a(nacl_irt.o)
__libnacl_irt_dev_getpid
                    0x4               /Users/yeonwoo-kim/HealthHub/nacl_sdk/pepper_49/toolchain/mac_pnacl/bin/../x86_64-nacl/lib32/libnacl.a(nacl_irt.o)

Discarded input sections

 .group         0x0000000000000000        0x8 /Users/yeonwoo-kim/HealthHub/nacl_sdk/pepper_49/toolchain/mac_pnacl/bin/../lib/clang/3.7.0/lib/i686-nacl/crtbeginT.o
 .note.GNU-stack
                0x0000000000000000        0x0 /Users/yeonwoo-kim/HealthHub/nacl_sdk/pepper_49/toolchain/mac_pnacl/bin/../lib/clang/3.7.0/lib/i686-nacl/crtbeginT.o
 .group         0x0000000000000000        0x8 clang-newlib/Release/debugging_x86_32.o
 .note.NaCl.ABI.x86-32
                0x0000000000000000       0x1c clang-newlib/Release/debugging_x86_32.o
 .note.GNU-stack
                0x0000000000000000        0x0 clang-newlib/Release/debugging_x86_32.o
 .group         0x0000000000000000        0x8 /Users/yeonwoo-kim/HealthHub/nacl_sdk/pepper_49/lib/clang-newlib_x86_32/Release/liberror_handling.a(error_handling_x86_32.o)
 .note.NaCl.ABI.x86-32
                0x0000000000000000       0x1c /Users/yeonwoo-kim/HealthHub/nacl_sdk/pepper_49/lib/clang-newlib_x86_32/Release/liberror_handling.a(error_handling_x86_32.o)
 .note.GNU-stack
                0x0000000000000000        0x0 /Users/yeonwoo-kim/HealthHub/nacl_sdk/pepper_49/lib/clang-newlib_x86_32/Release/liberror_handling.a(error_handling_x86_32.o)
 .group         0x0000000000000000        0x8 /Users/yeonwoo-kim/HealthHub/nacl_sdk/pepper_49/lib/clang-newlib_x86_32/Release/liberror_handling.a(string_stream_x86_32.o)
 .note.NaCl.ABI.x86-32
                0x0000000000000000       0x1c /Users/yeonwoo-kim/HealthHub/nacl_sdk/pepper_49/lib/clang-newlib_x86_32/Release/liberror_handling.a(string_stream_x86_32.o)
 .note.GNU-stack
                0x0000000000000000        0x0 /Users/yeonwoo-kim/HealthHub/nacl_sdk/pepper_49/lib/clang-newlib_x86_32/Release/liberror_handling.a(string_stream_x86_32.o)
 .group         0x0000000000000000        0x8 /Users/yeonwoo-kim/HealthHub/nacl_sdk/pepper_49/toolchain/mac_pnacl/bin/../x86_64-nacl/lib32/libppapi_stub.a(plugin_main_irt_21ce9d26.o)
 .note.NaCl.ABI.x86-32
                0x0000000000000000       0x1c /Users/yeonwoo-kim/HealthHub/nacl_sdk/pepper_49/toolchain/mac_pnacl/bin/../x86_64-nacl/lib32/libppapi_stub.a(plugin_main_irt_21ce9d26.o)
 .note.GNU-stack
                0x0000000000000000        0x0 /Users/yeonwoo-kim/HealthHub/nacl_sdk/pepper_49/toolchain/mac_pnacl/bin/../x86_64-nacl/lib32/libppapi_stub.a(plugin_main_irt_21ce9d26.o)
 .group         0x0000000000000000        0x8 /Users/yeonwoo-kim/HealthHub/nacl_sdk/pepper_49/toolchain/mac_pnacl/bin/../x86_64-nacl/lib32/libppapi_stub.a(ppapi_plugin_main_399d0cf7.o)
 .note.NaCl.ABI.x86-32
                0x0000000000000000       0x1c /Users/yeonwoo-kim/HealthHub/nacl_sdk/pepper_49/toolchain/mac_pnacl/bin/../x86_64-nacl/lib32/libppapi_stub.a(ppapi_plugin_main_399d0cf7.o)
 .note.GNU-stack
                0x0000000000000000        0x0 /Users/yeonwoo-kim/HealthHub/nacl_sdk/pepper_49/toolchain/mac_pnacl/bin/../x86_64-nacl/lib32/libppapi_stub.a(ppapi_plugin_main_399d0cf7.o)
 .group         0x0000000000000000        0x8 /Users/yeonwoo-kim/HealthHub/nacl_sdk/pepper_49/toolchain/mac_pnacl/bin/../x86_64-nacl/lib32/libppapi_stub.a(ppapi_plugin_start_8da67623.o)
 .note.NaCl.ABI.x86-32
                0x0000000000000000       0x1c /Users/yeonwoo-kim/HealthHub/nacl_sdk/pepper_49/toolchain/mac_pnacl/bin/../x86_64-nacl/lib32/libppapi_stub.a(ppapi_plugin_start_8da67623.o)
 .note.GNU-stack
                0x0000000000000000        0x0 /Users/yeonwoo-kim/HealthHub/nacl_sdk/pepper_49/toolchain/mac_pnacl/bin/../x86_64-nacl/lib32/libppapi_stub.a(ppapi_plugin_start_8da67623.o)
 .group         0x0000000000000000        0x8 /Users/yeonwoo-kim/HealthHub/nacl_sdk/pepper_49/toolchain/mac_pnacl/bin/../x86_64-nacl/lib32/libppapi_stub.a(thread_creator_ccf263e1.o)
 .note.NaCl.ABI.x86-32
                0x0000000000000000       0x1c /Users/yeonwoo-kim/HealthHub/nacl_sdk/pepper_49/toolchain/mac_pnacl/bin/../x86_64-nacl/lib32/libppapi_stub.a(thread_creator_ccf263e1.o)
 .note.GNU-stack
                0x0000000000000000        0x0 /Users/yeonwoo-kim/HealthHub/nacl_sdk/pepper_49/toolchain/mac_pnacl/bin/../x86_64-nacl/lib32/libppapi_stub.a(thread_creator_ccf263e1.o)
 .group         0x0000000000000000        0x8 /Users/yeonwoo-kim/HealthHub/nacl_sdk/pepper_49/toolchain/mac_pnacl/bin/../x86_64-nacl/lib32/libpthread.a(nc_thread.o)
 .note.NaCl.ABI.x86-32
                0x0000000000000000       0x1c /Users/yeonwoo-kim/HealthHub/nacl_sdk/pepper_49/toolchain/mac_pnacl/bin/../x86_64-nacl/lib32/libpthread.a(nc_thread.o)
 .note.GNU-stack
                0x0000000000000000        0x0 /Users/yeonwoo-kim/HealthHub/nacl_sdk/pepper_49/toolchain/mac_pnacl/bin/../x86_64-nacl/lib32/libpthread.a(nc_thread.o)
 .group         0x0000000000000000        0x8 /Users/yeonwoo-kim/HealthHub/nacl_sdk/pepper_49/toolchain/mac_pnacl/bin/../x86_64-nacl/lib32/libpthread.a(nc_mutex.o)
 .note.NaCl.ABI.x86-32
                0x0000000000000000       0x1c /Users/yeonwoo-kim/HealthHub/nacl_sdk/pepper_49/toolchain/mac_pnacl/bin/../x86_64-nacl/lib32/libpthread.a(nc_mutex.o)
 .note.GNU-stack
                0x0000000000000000        0x0 /Users/yeonwoo-kim/HealthHub/nacl_sdk/pepper_49/toolchain/mac_pnacl/bin/../x86_64-nacl/lib32/libpthread.a(nc_mutex.o)
 .group         0x0000000000000000        0x8 /Users/yeonwoo-kim/HealthHub/nacl_sdk/pepper_49/toolchain/mac_pnacl/bin/../x86_64-nacl/lib32/libpthread.a(nc_condvar.o)
 .note.NaCl.ABI.x86-32
                0x0000000000000000       0x1c /Users/yeonwoo-kim/HealthHub/nacl_sdk/pepper_49/toolchain/mac_pnacl/bin/../x86_64-nacl/lib32/libpthread.a(nc_condvar.o)
 .note.GNU-stack
                0x0000000000000000        0x0 /Users/yeonwoo-kim/HealthHub/nacl_sdk/pepper_49/toolchain/mac_pnacl/bin/../x86_64-nacl/lib32/libpthread.a(nc_condvar.o)
 .group         0x0000000000000000        0x8 /Users/yeonwoo-kim/HealthHub/nacl_sdk/pepper_49/toolchain/mac_pnacl/bin/../x86_64-nacl/lib32/libpthread.a(valgrind_annotations.o)
 .note.NaCl.ABI.x86-32
                0x0000000000000000       0x1c /Users/yeonwoo-kim/HealthHub/nacl_sdk/pepper_49/toolchain/mac_pnacl/bin/../x86_64-nacl/lib32/libpthread.a(valgrind_annotations.o)
 .note.GNU-stack
                0x0000000000000000        0x0 /Users/yeonwoo-kim/HealthHub/nacl_sdk/pepper_49/toolchain/mac_pnacl/bin/../x86_64-nacl/lib32/libpthread.a(valgrind_annotations.o)
 .group         0x0000000000000000        0x8 /Users/yeonwoo-kim/HealthHub/nacl_sdk/pepper_49/toolchain/mac_pnacl/bin/../x86_64-nacl/lib32/libpthread.a(nc_init_irt.o)
 .note.NaCl.ABI.x86-32
                0x0000000000000000       0x1c /Users/yeonwoo-kim/HealthHub/nacl_sdk/pepper_49/toolchain/mac_pnacl/bin/../x86_64-nacl/lib32/libpthread.a(nc_init_irt.o)
 .note.GNU-stack
                0x0000000000000000        0x0 /Users/yeonwoo-kim/HealthHub/nacl_sdk/pepper_49/toolchain/mac_pnacl/bin/../x86_64-nacl/lib32/libpthread.a(nc_init_irt.o)
 .group         0x0000000000000000        0x8 /Users/yeonwoo-kim/HealthHub/nacl_sdk/pepper_49/toolchain/mac_pnacl/bin/../x86_64-nacl/lib32/libnacl.a(nacl_irt.o)
 .note.NaCl.ABI.x86-32
                0x0000000000000000       0x1c /Users/yeonwoo-kim/HealthHub/nacl_sdk/pepper_49/toolchain/mac_pnacl/bin/../x86_64-nacl/lib32/libnacl.a(nacl_irt.o)
 .note.GNU-stack
                0x0000000000000000        0x0 /Users/yeonwoo-kim/HealthHub/nacl_sdk/pepper_49/toolchain/mac_pnacl/bin/../x86_64-nacl/lib32/libnacl.a(nacl_irt.o)
 .group         0x0000000000000000        0x8 /Users/yeonwoo-kim/HealthHub/nacl_sdk/pepper_49/toolchain/mac_pnacl/bin/../x86_64-nacl/lib32/libnacl.a(_exit.o)
 .note.NaCl.ABI.x86-32
                0x0000000000000000       0x1c /Users/yeonwoo-kim/HealthHub/nacl_sdk/pepper_49/toolchain/mac_pnacl/bin/../x86_64-nacl/lib32/libnacl.a(_exit.o)
 .note.GNU-stack
                0x0000000000000000        0x0 /Users/yeonwoo-kim/HealthHub/nacl_sdk/pepper_49/toolchain/mac_pnacl/bin/../x86_64-nacl/lib32/libnacl.a(_exit.o)
 .group         0x0000000000000000        0x8 /Users/yeonwoo-kim/HealthHub/nacl_sdk/pepper_49/toolchain/mac_pnacl/bin/../x86_64-nacl/lib32/libnacl.a(mmap.o)
 .note.NaCl.ABI.x86-32
                0x0000000000000000       0x1c /Users/yeonwoo-kim/HealthHub/nacl_sdk/pepper_49/toolchain/mac_pnacl/bin/../x86_64-nacl/lib32/libnacl.a(mmap.o)
 .note.GNU-stack
                0x0000000000000000        0x0 /Users/yeonwoo-kim/HealthHub/nacl_sdk/pepper_49/toolchain/mac_pnacl/bin/../x86_64-nacl/lib32/libnacl.a(mmap.o)
 .group         0x0000000000000000        0x8 /Users/yeonwoo-kim/HealthHub/nacl_sdk/pepper_49/toolchain/mac_pnacl/bin/../x86_64-nacl/lib32/libnacl.a(munmap.o)
 .note.NaCl.ABI.x86-32
                0x0000000000000000       0x1c /Users/yeonwoo-kim/HealthHub/nacl_sdk/pepper_49/toolchain/mac_pnacl/bin/../x86_64-nacl/lib32/libnacl.a(munmap.o)
 .note.GNU-stack
                0x0000000000000000        0x0 /Users/yeonwoo-kim/HealthHub/nacl_sdk/pepper_49/toolchain/mac_pnacl/bin/../x86_64-nacl/lib32/libnacl.a(munmap.o)
 .group         0x0000000000000000        0x8 /Users/yeonwoo-kim/HealthHub/nacl_sdk/pepper_49/toolchain/mac_pnacl/bin/../x86_64-nacl/lib32/libnacl.a(nacl_interface_query.o)
 .note.NaCl.ABI.x86-32
                0x0000000000000000       0x1c /Users/yeonwoo-kim/HealthHub/nacl_sdk/pepper_49/toolchain/mac_pnacl/bin/../x86_64-nacl/lib32/libnacl.a(nacl_interface_query.o)
 .note.GNU-stack
                0x0000000000000000        0x0 /Users/yeonwoo-kim/HealthHub/nacl_sdk/pepper_49/toolchain/mac_pnacl/bin/../x86_64-nacl/lib32/libnacl.a(nacl_interface_query.o)
 .group         0x0000000000000000        0x8 /Users/yeonwoo-kim/HealthHub/nacl_sdk/pepper_49/toolchain/mac_pnacl/bin/../x86_64-nacl/lib32/libnacl.a(write.o)
 .note.NaCl.ABI.x86-32
                0x0000000000000000       0x1c /Users/yeonwoo-kim/HealthHub/nacl_sdk/pepper_49/toolchain/mac_pnacl/bin/../x86_64-nacl/lib32/libnacl.a(write.o)
 .note.GNU-stack
                0x0000000000000000        0x0 /Users/yeonwoo-kim/HealthHub/nacl_sdk/pepper_49/toolchain/mac_pnacl/bin/../x86_64-nacl/lib32/libnacl.a(write.o)
 .group         0x0000000000000000        0x8 /Users/yeonwoo-kim/HealthHub/nacl_sdk/pepper_49/toolchain/mac_pnacl/bin/../x86_64-nacl/lib32/libnacl.a(environ.o)
 .note.NaCl.ABI.x86-32
                0x0000000000000000       0x1c /Users/yeonwoo-kim/HealthHub/nacl_sdk/pepper_49/toolchain/mac_pnacl/bin/../x86_64-nacl/lib32/libnacl.a(environ.o)
 .note.GNU-stack
                0x0000000000000000        0x0 /Users/yeonwoo-kim/HealthHub/nacl_sdk/pepper_49/toolchain/mac_pnacl/bin/../x86_64-nacl/lib32/libnacl.a(environ.o)
 .group         0x0000000000000000        0x8 /Users/yeonwoo-kim/HealthHub/nacl_sdk/pepper_49/toolchain/mac_pnacl/bin/../x86_64-nacl/lib32/libnacl.a(malloc.o)
 .note.NaCl.ABI.x86-32
                0x0000000000000000       0x1c /Users/yeonwoo-kim/HealthHub/nacl_sdk/pepper_49/toolchain/mac_pnacl/bin/../x86_64-nacl/lib32/libnacl.a(malloc.o)
 .note.GNU-stack
                0x0000000000000000        0x0 /Users/yeonwoo-kim/HealthHub/nacl_sdk/pepper_49/toolchain/mac_pnacl/bin/../x86_64-nacl/lib32/libnacl.a(malloc.o)
 .group         0x0000000000000000        0x8 /Users/yeonwoo-kim/HealthHub/nacl_sdk/pepper_49/toolchain/mac_pnacl/bin/../x86_64-nacl/lib32/libnacl.a(start.o)
 .note.NaCl.ABI.x86-32
                0x0000000000000000       0x1c /Users/yeonwoo-kim/HealthHub/nacl_sdk/pepper_49/toolchain/mac_pnacl/bin/../x86_64-nacl/lib32/libnacl.a(start.o)
 .note.GNU-stack
                0x0000000000000000        0x0 /Users/yeonwoo-kim/HealthHub/nacl_sdk/pepper_49/toolchain/mac_pnacl/bin/../x86_64-nacl/lib32/libnacl.a(start.o)
 .group         0x0000000000000000        0x8 /Users/yeonwoo-kim/HealthHub/nacl_sdk/pepper_49/toolchain/mac_pnacl/bin/../x86_64-nacl/lib32/libnacl.a(nacl_read_tp.o)
 .note.NaCl.ABI.x86-32
                0x0000000000000000       0x1c /Users/yeonwoo-kim/HealthHub/nacl_sdk/pepper_49/toolchain/mac_pnacl/bin/../x86_64-nacl/lib32/libnacl.a(nacl_read_tp.o)
 .note.GNU-stack
                0x0000000000000000        0x0 /Users/yeonwoo-kim/HealthHub/nacl_sdk/pepper_49/toolchain/mac_pnacl/bin/../x86_64-nacl/lib32/libnacl.a(nacl_read_tp.o)
 .group         0x0000000000000000        0x8 /Users/yeonwoo-kim/HealthHub/nacl_sdk/pepper_49/toolchain/mac_pnacl/bin/../x86_64-nacl/lib32/libnacl.a(pthread_initialize_minimal.o)
 .note.NaCl.ABI.x86-32
                0x0000000000000000       0x1c /Users/yeonwoo-kim/HealthHub/nacl_sdk/pepper_49/toolchain/mac_pnacl/bin/../x86_64-nacl/lib32/libnacl.a(pthread_initialize_minimal.o)
 .note.GNU-stack
                0x0000000000000000        0x0 /Users/yeonwoo-kim/HealthHub/nacl_sdk/pepper_49/toolchain/mac_pnacl/bin/../x86_64-nacl/lib32/libnacl.a(pthread_initialize_minimal.o)
 .group         0x0000000000000000        0x8 /Users/yeonwoo-kim/HealthHub/nacl_sdk/pepper_49/toolchain/mac_pnacl/bin/../x86_64-nacl/lib32/libnacl.a(tls.o)
 .note.NaCl.ABI.x86-32
                0x0000000000000000       0x1c /Users/yeonwoo-kim/HealthHub/nacl_sdk/pepper_49/toolchain/mac_pnacl/bin/../x86_64-nacl/lib32/libnacl.a(tls.o)
 .note.GNU-stack
                0x0000000000000000        0x0 /Users/yeonwoo-kim/HealthHub/nacl_sdk/pepper_49/toolchain/mac_pnacl/bin/../x86_64-nacl/lib32/libnacl.a(tls.o)
 .group         0x0000000000000000        0x8 /Users/yeonwoo-kim/HealthHub/nacl_sdk/pepper_49/toolchain/mac_pnacl/bin/../x86_64-nacl/lib32/libnacl.a(nacl_irt_init.o)
 .note.NaCl.ABI.x86-32
                0x0000000000000000       0x1c /Users/yeonwoo-kim/HealthHub/nacl_sdk/pepper_49/toolchain/mac_pnacl/bin/../x86_64-nacl/lib32/libnacl.a(nacl_irt_init.o)
 .note.GNU-stack
                0x0000000000000000        0x0 /Users/yeonwoo-kim/HealthHub/nacl_sdk/pepper_49/toolchain/mac_pnacl/bin/../x86_64-nacl/lib32/libnacl.a(nacl_irt_init.o)
 .group         0x0000000000000000        0x8 /Users/yeonwoo-kim/HealthHub/nacl_sdk/pepper_49/toolchain/mac_pnacl/bin/../x86_64-nacl/lib32/libnacl.a(nacl_tls_get.o)
 .note.NaCl.ABI.x86-32
                0x0000000000000000       0x1c /Users/yeonwoo-kim/HealthHub/nacl_sdk/pepper_49/toolchain/mac_pnacl/bin/../x86_64-nacl/lib32/libnacl.a(nacl_tls_get.o)
 .note.GNU-stack
                0x0000000000000000        0x0 /Users/yeonwoo-kim/HealthHub/nacl_sdk/pepper_49/toolchain/mac_pnacl/bin/../x86_64-nacl/lib32/libnacl.a(nacl_tls_get.o)
 .group         0x0000000000000000        0x8 /Users/yeonwoo-kim/HealthHub/nacl_sdk/pepper_49/toolchain/mac_pnacl/bin/../x86_64-nacl/lib32/libnacl.a(nacl_tls_init.o)
 .note.NaCl.ABI.x86-32
                0x0000000000000000       0x1c /Users/yeonwoo-kim/HealthHub/nacl_sdk/pepper_49/toolchain/mac_pnacl/bin/../x86_64-nacl/lib32/libnacl.a(nacl_tls_init.o)
 .note.GNU-stack
                0x0000000000000000        0x0 /Users/yeonwoo-kim/HealthHub/nacl_sdk/pepper_49/toolchain/mac_pnacl/bin/../x86_64-nacl/lib32/libnacl.a(nacl_tls_init.o)
 .group         0x0000000000000000        0x8 /Users/yeonwoo-kim/HealthHub/nacl_sdk/pepper_49/toolchain/mac_pnacl/bin/../x86_64-nacl/lib32/libnacl.a(abort.o)
 .note.NaCl.ABI.x86-32
                0x0000000000000000       0x1c /Users/yeonwoo-kim/HealthHub/nacl_sdk/pepper_49/toolchain/mac_pnacl/bin/../x86_64-nacl/lib32/libnacl.a(abort.o)
 .note.GNU-stack
                0x0000000000000000        0x0 /Users/yeonwoo-kim/HealthHub/nacl_sdk/pepper_49/toolchain/mac_pnacl/bin/../x86_64-nacl/lib32/libnacl.a(abort.o)
 .group         0x0000000000000000        0x8 /Users/yeonwoo-kim/HealthHub/nacl_sdk/pepper_49/toolchain/mac_pnacl/bin/../x86_64-nacl/lib32/libnacl.a(sched_yield.o)
 .note.NaCl.ABI.x86-32
                0x0000000000000000       0x1c /Users/yeonwoo-kim/HealthHub/nacl_sdk/pepper_49/toolchain/mac_pnacl/bin/../x86_64-nacl/lib32/libnacl.a(sched_yield.o)
 .note.GNU-stack
                0x0000000000000000        0x0 /Users/yeonwoo-kim/HealthHub/nacl_sdk/pepper_49/toolchain/mac_pnacl/bin/../x86_64-nacl/lib32/libnacl.a(sched_yield.o)
 .group         0x0000000000000000        0x8 /Users/yeonwoo-kim/HealthHub/nacl_sdk/pepper_49/toolchain/mac_pnacl/bin/../x86_64-nacl/lib32/libnacl.a(sysconf.o)
 .note.NaCl.ABI.x86-32
                0x0000000000000000       0x1c /Users/yeonwoo-kim/HealthHub/nacl_sdk/pepper_49/toolchain/mac_pnacl/bin/../x86_64-nacl/lib32/libnacl.a(sysconf.o)
 .note.GNU-stack
                0x0000000000000000        0x0 /Users/yeonwoo-kim/HealthHub/nacl_sdk/pepper_49/toolchain/mac_pnacl/bin/../x86_64-nacl/lib32/libnacl.a(sysconf.o)
 .group         0x0000000000000000        0x8 /Users/yeonwoo-kim/HealthHub/nacl_sdk/pepper_49/toolchain/mac_pnacl/bin/../x86_64-nacl/lib32/libcrt_common.a(lib_a-atexit.o)
 .note.NaCl.ABI.x86-32
                0x0000000000000000       0x1c /Users/yeonwoo-kim/HealthHub/nacl_sdk/pepper_49/toolchain/mac_pnacl/bin/../x86_64-nacl/lib32/libcrt_common.a(lib_a-atexit.o)
 .note.GNU-stack
                0x0000000000000000        0x0 /Users/yeonwoo-kim/HealthHub/nacl_sdk/pepper_49/toolchain/mac_pnacl/bin/../x86_64-nacl/lib32/libcrt_common.a(lib_a-atexit.o)
 .group         0x0000000000000000        0x8 /Users/yeonwoo-kim/HealthHub/nacl_sdk/pepper_49/toolchain/mac_pnacl/bin/../x86_64-nacl/lib32/libcrt_common.a(lib_a-errno.o)
 .note.NaCl.ABI.x86-32
                0x0000000000000000       0x1c /Users/yeonwoo-kim/HealthHub/nacl_sdk/pepper_49/toolchain/mac_pnacl/bin/../x86_64-nacl/lib32/libcrt_common.a(lib_a-errno.o)
 .note.GNU-stack
                0x0000000000000000        0x0 /Users/yeonwoo-kim/HealthHub/nacl_sdk/pepper_49/toolchain/mac_pnacl/bin/../x86_64-nacl/lib32/libcrt_common.a(lib_a-errno.o)
 .group         0x0000000000000000        0x8 /Users/yeonwoo-kim/HealthHub/nacl_sdk/pepper_49/toolchain/mac_pnacl/bin/../x86_64-nacl/lib32/libcrt_common.a(lib_a-exit.o)
 .note.NaCl.ABI.x86-32
                0x0000000000000000       0x1c /Users/yeonwoo-kim/HealthHub/nacl_sdk/pepper_49/toolchain/mac_pnacl/bin/../x86_64-nacl/lib32/libcrt_common.a(lib_a-exit.o)
 .note.GNU-stack
                0x0000000000000000        0x0 /Users/yeonwoo-kim/HealthHub/nacl_sdk/pepper_49/toolchain/mac_pnacl/bin/../x86_64-nacl/lib32/libcrt_common.a(lib_a-exit.o)
 .group         0x0000000000000000        0x8 /Users/yeonwoo-kim/HealthHub/nacl_sdk/pepper_49/toolchain/mac_pnacl/bin/../x86_64-nacl/lib32/libcrt_common.a(lib_a-fflush.o)
 .note.NaCl.ABI.x86-32
                0x0000000000000000       0x1c /Users/yeonwoo-kim/HealthHub/nacl_sdk/pepper_49/toolchain/mac_pnacl/bin/../x86_64-nacl/lib32/libcrt_common.a(lib_a-fflush.o)
 .note.GNU-stack
                0x0000000000000000        0x0 /Users/yeonwoo-kim/HealthHub/nacl_sdk/pepper_49/toolchain/mac_pnacl/bin/../x86_64-nacl/lib32/libcrt_common.a(lib_a-fflush.o)
 .group         0x0000000000000000        0x8 /Users/yeonwoo-kim/HealthHub/nacl_sdk/pepper_49/toolchain/mac_pnacl/bin/../x86_64-nacl/lib32/libcrt_common.a(lib_a-findfp.o)
 .note.NaCl.ABI.x86-32
                0x0000000000000000       0x1c /Users/yeonwoo-kim/HealthHub/nacl_sdk/pepper_49/toolchain/mac_pnacl/bin/../x86_64-nacl/lib32/libcrt_common.a(lib_a-findfp.o)
 .note.GNU-stack
                0x0000000000000000        0x0 /Users/yeonwoo-kim/HealthHub/nacl_sdk/pepper_49/toolchain/mac_pnacl/bin/../x86_64-nacl/lib32/libcrt_common.a(lib_a-findfp.o)
 .group         0x0000000000000000        0x8 /Users/yeonwoo-kim/HealthHub/nacl_sdk/pepper_49/toolchain/mac_pnacl/bin/../x86_64-nacl/lib32/libcrt_common.a(lib_a-fini.o)
 .note.NaCl.ABI.x86-32
                0x0000000000000000       0x1c /Users/yeonwoo-kim/HealthHub/nacl_sdk/pepper_49/toolchain/mac_pnacl/bin/../x86_64-nacl/lib32/libcrt_common.a(lib_a-fini.o)
 .note.GNU-stack
                0x0000000000000000        0x0 /Users/yeonwoo-kim/HealthHub/nacl_sdk/pepper_49/toolchain/mac_pnacl/bin/../x86_64-nacl/lib32/libcrt_common.a(lib_a-fini.o)
 .group         0x0000000000000000        0x8 /Users/yeonwoo-kim/HealthHub/nacl_sdk/pepper_49/toolchain/mac_pnacl/bin/../x86_64-nacl/lib32/libcrt_common.a(lib_a-fprintf.o)
 .note.NaCl.ABI.x86-32
                0x0000000000000000       0x1c /Users/yeonwoo-kim/HealthHub/nacl_sdk/pepper_49/toolchain/mac_pnacl/bin/../x86_64-nacl/lib32/libcrt_common.a(lib_a-fprintf.o)
 .note.GNU-stack
                0x0000000000000000        0x0 /Users/yeonwoo-kim/HealthHub/nacl_sdk/pepper_49/toolchain/mac_pnacl/bin/../x86_64-nacl/lib32/libcrt_common.a(lib_a-fprintf.o)
 .group         0x0000000000000000        0x8 /Users/yeonwoo-kim/HealthHub/nacl_sdk/pepper_49/toolchain/mac_pnacl/bin/../x86_64-nacl/lib32/libcrt_common.a(lib_a-fwalk.o)
 .note.NaCl.ABI.x86-32
                0x0000000000000000       0x1c /Users/yeonwoo-kim/HealthHub/nacl_sdk/pepper_49/toolchain/mac_pnacl/bin/../x86_64-nacl/lib32/libcrt_common.a(lib_a-fwalk.o)
 .note.GNU-stack
                0x0000000000000000        0x0 /Users/yeonwoo-kim/HealthHub/nacl_sdk/pepper_49/toolchain/mac_pnacl/bin/../x86_64-nacl/lib32/libcrt_common.a(lib_a-fwalk.o)
 .group         0x0000000000000000        0x8 /Users/yeonwoo-kim/HealthHub/nacl_sdk/pepper_49/toolchain/mac_pnacl/bin/../x86_64-nacl/lib32/libcrt_common.a(lib_a-fwrite.o)
 .note.NaCl.ABI.x86-32
                0x0000000000000000       0x1c /Users/yeonwoo-kim/HealthHub/nacl_sdk/pepper_49/toolchain/mac_pnacl/bin/../x86_64-nacl/lib32/libcrt_common.a(lib_a-fwrite.o)
 .note.GNU-stack
                0x0000000000000000        0x0 /Users/yeonwoo-kim/HealthHub/nacl_sdk/pepper_49/toolchain/mac_pnacl/bin/../x86_64-nacl/lib32/libcrt_common.a(lib_a-fwrite.o)
 .group         0x0000000000000000        0x8 /Users/yeonwoo-kim/HealthHub/nacl_sdk/pepper_49/toolchain/mac_pnacl/bin/../x86_64-nacl/lib32/libcrt_common.a(lib_a-getenv.o)
 .note.NaCl.ABI.x86-32
                0x0000000000000000       0x1c /Users/yeonwoo-kim/HealthHub/nacl_sdk/pepper_49/toolchain/mac_pnacl/bin/../x86_64-nacl/lib32/libcrt_common.a(lib_a-getenv.o)
 .note.GNU-stack
                0x0000000000000000        0x0 /Users/yeonwoo-kim/HealthHub/nacl_sdk/pepper_49/toolchain/mac_pnacl/bin/../x86_64-nacl/lib32/libcrt_common.a(lib_a-getenv.o)
 .group         0x0000000000000000        0x8 /Users/yeonwoo-kim/HealthHub/nacl_sdk/pepper_49/toolchain/mac_pnacl/bin/../x86_64-nacl/lib32/libcrt_common.a(lib_a-getenv_r.o)
 .note.NaCl.ABI.x86-32
                0x0000000000000000       0x1c /Users/yeonwoo-kim/HealthHub/nacl_sdk/pepper_49/toolchain/mac_pnacl/bin/../x86_64-nacl/lib32/libcrt_common.a(lib_a-getenv_r.o)
 .note.GNU-stack
                0x0000000000000000        0x0 /Users/yeonwoo-kim/HealthHub/nacl_sdk/pepper_49/toolchain/mac_pnacl/bin/../x86_64-nacl/lib32/libcrt_common.a(lib_a-getenv_r.o)
 .group         0x0000000000000000        0x8 /Users/yeonwoo-kim/HealthHub/nacl_sdk/pepper_49/toolchain/mac_pnacl/bin/../x86_64-nacl/lib32/libcrt_common.a(lib_a-impure.o)
 .note.NaCl.ABI.x86-32
                0x0000000000000000       0x1c /Users/yeonwoo-kim/HealthHub/nacl_sdk/pepper_49/toolchain/mac_pnacl/bin/../x86_64-nacl/lib32/libcrt_common.a(lib_a-impure.o)
 .note.GNU-stack
                0x0000000000000000        0x0 /Users/yeonwoo-kim/HealthHub/nacl_sdk/pepper_49/toolchain/mac_pnacl/bin/../x86_64-nacl/lib32/libcrt_common.a(lib_a-impure.o)
 .group         0x0000000000000000        0x8 /Users/yeonwoo-kim/HealthHub/nacl_sdk/pepper_49/toolchain/mac_pnacl/bin/../x86_64-nacl/lib32/libcrt_common.a(lib_a-init.o)
 .note.NaCl.ABI.x86-32
                0x0000000000000000       0x1c /Users/yeonwoo-kim/HealthHub/nacl_sdk/pepper_49/toolchain/mac_pnacl/bin/../x86_64-nacl/lib32/libcrt_common.a(lib_a-init.o)
 .note.GNU-stack
                0x0000000000000000        0x0 /Users/yeonwoo-kim/HealthHub/nacl_sdk/pepper_49/toolchain/mac_pnacl/bin/../x86_64-nacl/lib32/libcrt_common.a(lib_a-init.o)
 .group         0x0000000000000000        0x8 /Users/yeonwoo-kim/HealthHub/nacl_sdk/pepper_49/toolchain/mac_pnacl/bin/../x86_64-nacl/lib32/libcrt_common.a(lib_a-memcpy.o)
 .note.NaCl.ABI.x86-32
                0x0000000000000000       0x1c /Users/yeonwoo-kim/HealthHub/nacl_sdk/pepper_49/toolchain/mac_pnacl/bin/../x86_64-nacl/lib32/libcrt_common.a(lib_a-memcpy.o)
 .group         0x0000000000000000        0x8 /Users/yeonwoo-kim/HealthHub/nacl_sdk/pepper_49/toolchain/mac_pnacl/bin/../x86_64-nacl/lib32/libcrt_common.a(lib_a-memset.o)
 .note.NaCl.ABI.x86-32
                0x0000000000000000       0x1c /Users/yeonwoo-kim/HealthHub/nacl_sdk/pepper_49/toolchain/mac_pnacl/bin/../x86_64-nacl/lib32/libcrt_common.a(lib_a-memset.o)
 .group         0x0000000000000000        0x8 /Users/yeonwoo-kim/HealthHub/nacl_sdk/pepper_49/toolchain/mac_pnacl/bin/../x86_64-nacl/lib32/libcrt_common.a(lib_a-sleep.o)
 .note.NaCl.ABI.x86-32
                0x0000000000000000       0x1c /Users/yeonwoo-kim/HealthHub/nacl_sdk/pepper_49/toolchain/mac_pnacl/bin/../x86_64-nacl/lib32/libcrt_common.a(lib_a-sleep.o)
 .note.GNU-stack
                0x0000000000000000        0x0 /Users/yeonwoo-kim/HealthHub/nacl_sdk/pepper_49/toolchain/mac_pnacl/bin/../x86_64-nacl/lib32/libcrt_common.a(lib_a-sleep.o)
 .group         0x0000000000000000        0x8 /Users/yeonwoo-kim/HealthHub/nacl_sdk/pepper_49/toolchain/mac_pnacl/bin/../x86_64-nacl/lib32/libcrt_common.a(lib_a-stdio.o)
 .note.NaCl.ABI.x86-32
                0x0000000000000000       0x1c /Users/yeonwoo-kim/HealthHub/nacl_sdk/pepper_49/toolchain/mac_pnacl/bin/../x86_64-nacl/lib32/libcrt_common.a(lib_a-stdio.o)
 .note.GNU-stack
                0x0000000000000000        0x0 /Users/yeonwoo-kim/HealthHub/nacl_sdk/pepper_49/toolchain/mac_pnacl/bin/../x86_64-nacl/lib32/libcrt_common.a(lib_a-stdio.o)
 .group         0x0000000000000000        0x8 /Users/yeonwoo-kim/HealthHub/nacl_sdk/pepper_49/toolchain/mac_pnacl/bin/../x86_64-nacl/lib32/libcrt_common.a(lib_a-strcat.o)
 .note.NaCl.ABI.x86-32
                0x0000000000000000       0x1c /Users/yeonwoo-kim/HealthHub/nacl_sdk/pepper_49/toolchain/mac_pnacl/bin/../x86_64-nacl/lib32/libcrt_common.a(lib_a-strcat.o)
 .note.GNU-stack
                0x0000000000000000        0x0 /Users/yeonwoo-kim/HealthHub/nacl_sdk/pepper_49/toolchain/mac_pnacl/bin/../x86_64-nacl/lib32/libcrt_common.a(lib_a-strcat.o)
 .group         0x0000000000000000        0x8 /Users/yeonwoo-kim/HealthHub/nacl_sdk/pepper_49/toolchain/mac_pnacl/bin/../x86_64-nacl/lib32/libcrt_common.a(lib_a-strcmp.o)
 .note.NaCl.ABI.x86-32
                0x0000000000000000       0x1c /Users/yeonwoo-kim/HealthHub/nacl_sdk/pepper_49/toolchain/mac_pnacl/bin/../x86_64-nacl/lib32/libcrt_common.a(lib_a-strcmp.o)
 .note.GNU-stack
                0x0000000000000000        0x0 /Users/yeonwoo-kim/HealthHub/nacl_sdk/pepper_49/toolchain/mac_pnacl/bin/../x86_64-nacl/lib32/libcrt_common.a(lib_a-strcmp.o)
 .group         0x0000000000000000        0x8 /Users/yeonwoo-kim/HealthHub/nacl_sdk/pepper_49/toolchain/mac_pnacl/bin/../x86_64-nacl/lib32/libcrt_common.a(lib_a-strcpy.o)
 .note.NaCl.ABI.x86-32
                0x0000000000000000       0x1c /Users/yeonwoo-kim/HealthHub/nacl_sdk/pepper_49/toolchain/mac_pnacl/bin/../x86_64-nacl/lib32/libcrt_common.a(lib_a-strcpy.o)
 .note.GNU-stack
                0x0000000000000000        0x0 /Users/yeonwoo-kim/HealthHub/nacl_sdk/pepper_49/toolchain/mac_pnacl/bin/../x86_64-nacl/lib32/libcrt_common.a(lib_a-strcpy.o)
 .group         0x0000000000000000        0x8 /Users/yeonwoo-kim/HealthHub/nacl_sdk/pepper_49/toolchain/mac_pnacl/bin/../x86_64-nacl/lib32/libcrt_common.a(lib_a-strlen.o)
 .note.NaCl.ABI.x86-32
                0x0000000000000000       0x1c /Users/yeonwoo-kim/HealthHub/nacl_sdk/pepper_49/toolchain/mac_pnacl/bin/../x86_64-nacl/lib32/libcrt_common.a(lib_a-strlen.o)
 .group         0x0000000000000000        0x8 /Users/yeonwoo-kim/HealthHub/nacl_sdk/pepper_49/toolchain/mac_pnacl/bin/../x86_64-nacl/lib32/libcrt_common.a(lib_a-strncmp.o)
 .note.NaCl.ABI.x86-32
                0x0000000000000000       0x1c /Users/yeonwoo-kim/HealthHub/nacl_sdk/pepper_49/toolchain/mac_pnacl/bin/../x86_64-nacl/lib32/libcrt_common.a(lib_a-strncmp.o)
 .note.GNU-stack
                0x0000000000000000        0x0 /Users/yeonwoo-kim/HealthHub/nacl_sdk/pepper_49/toolchain/mac_pnacl/bin/../x86_64-nacl/lib32/libcrt_common.a(lib_a-strncmp.o)
 .group         0x0000000000000000        0x8 /Users/yeonwoo-kim/HealthHub/nacl_sdk/pepper_49/toolchain/mac_pnacl/bin/../x86_64-nacl/lib32/libcrt_common.a(lib_a-vfprintf.o)
 .note.NaCl.ABI.x86-32
                0x0000000000000000       0x1c /Users/yeonwoo-kim/HealthHub/nacl_sdk/pepper_49/toolchain/mac_pnacl/bin/../x86_64-nacl/lib32/libcrt_common.a(lib_a-vfprintf.o)
 .note.GNU-stack
                0x0000000000000000        0x0 /Users/yeonwoo-kim/HealthHub/nacl_sdk/pepper_49/toolchain/mac_pnacl/bin/../x86_64-nacl/lib32/libcrt_common.a(lib_a-vfprintf.o)
 .group         0x0000000000000000        0x8 /Users/yeonwoo-kim/HealthHub/nacl_sdk/pepper_49/toolchain/mac_pnacl/bin/../x86_64-nacl/lib32/libcrt_common.a(lib_a-vsnprintf.o)
 .note.NaCl.ABI.x86-32
                0x0000000000000000       0x1c /Users/yeonwoo-kim/HealthHub/nacl_sdk/pepper_49/toolchain/mac_pnacl/bin/../x86_64-nacl/lib32/libcrt_common.a(lib_a-vsnprintf.o)
 .note.GNU-stack
                0x0000000000000000        0x0 /Users/yeonwoo-kim/HealthHub/nacl_sdk/pepper_49/toolchain/mac_pnacl/bin/../x86_64-nacl/lib32/libcrt_common.a(lib_a-vsnprintf.o)
 .group         0x0000000000000000        0x8 /Users/yeonwoo-kim/HealthHub/nacl_sdk/pepper_49/toolchain/mac_pnacl/bin/../x86_64-nacl/lib32/libcrt_common.a(lib_a-vsprintf.o)
 .note.NaCl.ABI.x86-32
                0x0000000000000000       0x1c /Users/yeonwoo-kim/HealthHub/nacl_sdk/pepper_49/toolchain/mac_pnacl/bin/../x86_64-nacl/lib32/libcrt_common.a(lib_a-vsprintf.o)
 .note.GNU-stack
                0x0000000000000000        0x0 /Users/yeonwoo-kim/HealthHub/nacl_sdk/pepper_49/toolchain/mac_pnacl/bin/../x86_64-nacl/lib32/libcrt_common.a(lib_a-vsprintf.o)
 .group         0x0000000000000000        0x8 /Users/yeonwoo-kim/HealthHub/nacl_sdk/pepper_49/toolchain/mac_pnacl/bin/../x86_64-nacl/lib32/libcrt_common.a(lib_a-wcrtomb.o)
 .note.NaCl.ABI.x86-32
                0x0000000000000000       0x1c /Users/yeonwoo-kim/HealthHub/nacl_sdk/pepper_49/toolchain/mac_pnacl/bin/../x86_64-nacl/lib32/libcrt_common.a(lib_a-wcrtomb.o)
 .note.GNU-stack
                0x0000000000000000        0x0 /Users/yeonwoo-kim/HealthHub/nacl_sdk/pepper_49/toolchain/mac_pnacl/bin/../x86_64-nacl/lib32/libcrt_common.a(lib_a-wcrtomb.o)
 .group         0x0000000000000000        0x8 /Users/yeonwoo-kim/HealthHub/nacl_sdk/pepper_49/toolchain/mac_pnacl/bin/../x86_64-nacl/lib32/libcrt_common.a(lib_a-wcsrtombs.o)
 .note.NaCl.ABI.x86-32
                0x0000000000000000       0x1c /Users/yeonwoo-kim/HealthHub/nacl_sdk/pepper_49/toolchain/mac_pnacl/bin/../x86_64-nacl/lib32/libcrt_common.a(lib_a-wcsrtombs.o)
 .note.GNU-stack
                0x0000000000000000        0x0 /Users/yeonwoo-kim/HealthHub/nacl_sdk/pepper_49/toolchain/mac_pnacl/bin/../x86_64-nacl/lib32/libcrt_common.a(lib_a-wcsrtombs.o)
 .group         0x0000000000000000        0x8 /Users/yeonwoo-kim/HealthHub/nacl_sdk/pepper_49/toolchain/mac_pnacl/bin/../x86_64-nacl/lib32/libcrt_common.a(lib_a-wctomb_r.o)
 .note.NaCl.ABI.x86-32
                0x0000000000000000       0x1c /Users/yeonwoo-kim/HealthHub/nacl_sdk/pepper_49/toolchain/mac_pnacl/bin/../x86_64-nacl/lib32/libcrt_common.a(lib_a-wctomb_r.o)
 .note.GNU-stack
                0x0000000000000000        0x0 /Users/yeonwoo-kim/HealthHub/nacl_sdk/pepper_49/toolchain/mac_pnacl/bin/../x86_64-nacl/lib32/libcrt_common.a(lib_a-wctomb_r.o)
 .group         0x0000000000000000        0x8 /Users/yeonwoo-kim/HealthHub/nacl_sdk/pepper_49/toolchain/mac_pnacl/bin/../x86_64-nacl/lib32/libcrt_common.a(lib_a-wsetup.o)
 .note.NaCl.ABI.x86-32
                0x0000000000000000       0x1c /Users/yeonwoo-kim/HealthHub/nacl_sdk/pepper_49/toolchain/mac_pnacl/bin/../x86_64-nacl/lib32/libcrt_common.a(lib_a-wsetup.o)
 .note.GNU-stack
                0x0000000000000000        0x0 /Users/yeonwoo-kim/HealthHub/nacl_sdk/pepper_49/toolchain/mac_pnacl/bin/../x86_64-nacl/lib32/libcrt_common.a(lib_a-wsetup.o)
 .group         0x0000000000000000        0x8 /Users/yeonwoo-kim/HealthHub/nacl_sdk/pepper_49/toolchain/mac_pnacl/bin/../x86_64-nacl/lib32/libcrt_common.a(lib_a-__atexit.o)
 .note.NaCl.ABI.x86-32
                0x0000000000000000       0x1c /Users/yeonwoo-kim/HealthHub/nacl_sdk/pepper_49/toolchain/mac_pnacl/bin/../x86_64-nacl/lib32/libcrt_common.a(lib_a-__atexit.o)
 .note.GNU-stack
                0x0000000000000000        0x0 /Users/yeonwoo-kim/HealthHub/nacl_sdk/pepper_49/toolchain/mac_pnacl/bin/../x86_64-nacl/lib32/libcrt_common.a(lib_a-__atexit.o)
 .group         0x0000000000000000        0x8 /Users/yeonwoo-kim/HealthHub/nacl_sdk/pepper_49/toolchain/mac_pnacl/bin/../x86_64-nacl/lib32/libcrt_common.a(lib_a-__call_atexit.o)
 .note.NaCl.ABI.x86-32
                0x0000000000000000       0x1c /Users/yeonwoo-kim/HealthHub/nacl_sdk/pepper_49/toolchain/mac_pnacl/bin/../x86_64-nacl/lib32/libcrt_common.a(lib_a-__call_atexit.o)
 .note.GNU-stack
                0x0000000000000000        0x0 /Users/yeonwoo-kim/HealthHub/nacl_sdk/pepper_49/toolchain/mac_pnacl/bin/../x86_64-nacl/lib32/libcrt_common.a(lib_a-__call_atexit.o)
 .group         0x0000000000000000        0x8 /Users/yeonwoo-kim/HealthHub/nacl_sdk/pepper_49/toolchain/mac_pnacl/bin/../x86_64-nacl/lib32/libcrt_common.a(lib_a-dtoa.o)
 .note.NaCl.ABI.x86-32
                0x0000000000000000       0x1c /Users/yeonwoo-kim/HealthHub/nacl_sdk/pepper_49/toolchain/mac_pnacl/bin/../x86_64-nacl/lib32/libcrt_common.a(lib_a-dtoa.o)
 .note.GNU-stack
                0x0000000000000000        0x0 /Users/yeonwoo-kim/HealthHub/nacl_sdk/pepper_49/toolchain/mac_pnacl/bin/../x86_64-nacl/lib32/libcrt_common.a(lib_a-dtoa.o)
 .group         0x0000000000000000        0x8 /Users/yeonwoo-kim/HealthHub/nacl_sdk/pepper_49/toolchain/mac_pnacl/bin/../x86_64-nacl/lib32/libcrt_common.a(lib_a-envlock.o)
 .note.NaCl.ABI.x86-32
                0x0000000000000000       0x1c /Users/yeonwoo-kim/HealthHub/nacl_sdk/pepper_49/toolchain/mac_pnacl/bin/../x86_64-nacl/lib32/libcrt_common.a(lib_a-envlock.o)
 .note.GNU-stack
                0x0000000000000000        0x0 /Users/yeonwoo-kim/HealthHub/nacl_sdk/pepper_49/toolchain/mac_pnacl/bin/../x86_64-nacl/lib32/libcrt_common.a(lib_a-envlock.o)
 .group         0x0000000000000000        0x8 /Users/yeonwoo-kim/HealthHub/nacl_sdk/pepper_49/toolchain/mac_pnacl/bin/../x86_64-nacl/lib32/libcrt_common.a(lib_a-fclose.o)
 .note.NaCl.ABI.x86-32
                0x0000000000000000       0x1c /Users/yeonwoo-kim/HealthHub/nacl_sdk/pepper_49/toolchain/mac_pnacl/bin/../x86_64-nacl/lib32/libcrt_common.a(lib_a-fclose.o)
 .note.GNU-stack
                0x0000000000000000        0x0 /Users/yeonwoo-kim/HealthHub/nacl_sdk/pepper_49/toolchain/mac_pnacl/bin/../x86_64-nacl/lib32/libcrt_common.a(lib_a-fclose.o)
 .group         0x0000000000000000        0x8 /Users/yeonwoo-kim/HealthHub/nacl_sdk/pepper_49/toolchain/mac_pnacl/bin/../x86_64-nacl/lib32/libcrt_common.a(lib_a-fvwrite.o)
 .note.NaCl.ABI.x86-32
                0x0000000000000000       0x1c /Users/yeonwoo-kim/HealthHub/nacl_sdk/pepper_49/toolchain/mac_pnacl/bin/../x86_64-nacl/lib32/libcrt_common.a(lib_a-fvwrite.o)
 .note.GNU-stack
                0x0000000000000000        0x0 /Users/yeonwoo-kim/HealthHub/nacl_sdk/pepper_49/toolchain/mac_pnacl/bin/../x86_64-nacl/lib32/libcrt_common.a(lib_a-fvwrite.o)
 .group         0x0000000000000000        0x8 /Users/yeonwoo-kim/HealthHub/nacl_sdk/pepper_49/toolchain/mac_pnacl/bin/../x86_64-nacl/lib32/libcrt_common.a(lib_a-locale.o)
 .note.NaCl.ABI.x86-32
                0x0000000000000000       0x1c /Users/yeonwoo-kim/HealthHub/nacl_sdk/pepper_49/toolchain/mac_pnacl/bin/../x86_64-nacl/lib32/libcrt_common.a(lib_a-locale.o)
 .note.GNU-stack
                0x0000000000000000        0x0 /Users/yeonwoo-kim/HealthHub/nacl_sdk/pepper_49/toolchain/mac_pnacl/bin/../x86_64-nacl/lib32/libcrt_common.a(lib_a-locale.o)
 .group         0x0000000000000000        0x8 /Users/yeonwoo-kim/HealthHub/nacl_sdk/pepper_49/toolchain/mac_pnacl/bin/../x86_64-nacl/lib32/libcrt_common.a(lib_a-makebuf.o)
 .note.NaCl.ABI.x86-32
                0x0000000000000000       0x1c /Users/yeonwoo-kim/HealthHub/nacl_sdk/pepper_49/toolchain/mac_pnacl/bin/../x86_64-nacl/lib32/libcrt_common.a(lib_a-makebuf.o)
 .note.GNU-stack
                0x0000000000000000        0x0 /Users/yeonwoo-kim/HealthHub/nacl_sdk/pepper_49/toolchain/mac_pnacl/bin/../x86_64-nacl/lib32/libcrt_common.a(lib_a-makebuf.o)
 .group         0x0000000000000000        0x8 /Users/yeonwoo-kim/HealthHub/nacl_sdk/pepper_49/toolchain/mac_pnacl/bin/../x86_64-nacl/lib32/libcrt_common.a(lib_a-mbtowc_r.o)
 .note.NaCl.ABI.x86-32
                0x0000000000000000       0x1c /Users/yeonwoo-kim/HealthHub/nacl_sdk/pepper_49/toolchain/mac_pnacl/bin/../x86_64-nacl/lib32/libcrt_common.a(lib_a-mbtowc_r.o)
 .note.GNU-stack
                0x0000000000000000        0x0 /Users/yeonwoo-kim/HealthHub/nacl_sdk/pepper_49/toolchain/mac_pnacl/bin/../x86_64-nacl/lib32/libcrt_common.a(lib_a-mbtowc_r.o)
 .group         0x0000000000000000        0x8 /Users/yeonwoo-kim/HealthHub/nacl_sdk/pepper_49/toolchain/mac_pnacl/bin/../x86_64-nacl/lib32/libcrt_common.a(lib_a-memchr.o)
 .note.NaCl.ABI.x86-32
                0x0000000000000000       0x1c /Users/yeonwoo-kim/HealthHub/nacl_sdk/pepper_49/toolchain/mac_pnacl/bin/../x86_64-nacl/lib32/libcrt_common.a(lib_a-memchr.o)
 .group         0x0000000000000000        0x8 /Users/yeonwoo-kim/HealthHub/nacl_sdk/pepper_49/toolchain/mac_pnacl/bin/../x86_64-nacl/lib32/libcrt_common.a(lib_a-memmove.o)
 .note.NaCl.ABI.x86-32
                0x0000000000000000       0x1c /Users/yeonwoo-kim/HealthHub/nacl_sdk/pepper_49/toolchain/mac_pnacl/bin/../x86_64-nacl/lib32/libcrt_common.a(lib_a-memmove.o)
 .group         0x0000000000000000        0x8 /Users/yeonwoo-kim/HealthHub/nacl_sdk/pepper_49/toolchain/mac_pnacl/bin/../x86_64-nacl/lib32/libcrt_common.a(lib_a-mprec.o)
 .note.NaCl.ABI.x86-32
                0x0000000000000000       0x1c /Users/yeonwoo-kim/HealthHub/nacl_sdk/pepper_49/toolchain/mac_pnacl/bin/../x86_64-nacl/lib32/libcrt_common.a(lib_a-mprec.o)
 .note.GNU-stack
                0x0000000000000000        0x0 /Users/yeonwoo-kim/HealthHub/nacl_sdk/pepper_49/toolchain/mac_pnacl/bin/../x86_64-nacl/lib32/libcrt_common.a(lib_a-mprec.o)
 .group         0x0000000000000000        0x8 /Users/yeonwoo-kim/HealthHub/nacl_sdk/pepper_49/toolchain/mac_pnacl/bin/../x86_64-nacl/lib32/libcrt_common.a(lib_a-s_fpclassify.o)
 .note.NaCl.ABI.x86-32
                0x0000000000000000       0x1c /Users/yeonwoo-kim/HealthHub/nacl_sdk/pepper_49/toolchain/mac_pnacl/bin/../x86_64-nacl/lib32/libcrt_common.a(lib_a-s_fpclassify.o)
 .note.GNU-stack
                0x0000000000000000        0x0 /Users/yeonwoo-kim/HealthHub/nacl_sdk/pepper_49/toolchain/mac_pnacl/bin/../x86_64-nacl/lib32/libcrt_common.a(lib_a-s_fpclassify.o)
 .group         0x0000000000000000        0x8 /Users/yeonwoo-kim/HealthHub/nacl_sdk/pepper_49/toolchain/mac_pnacl/bin/../x86_64-nacl/lib32/libcrt_common.a(lib_a-s_frexp.o)
 .note.NaCl.ABI.x86-32
                0x0000000000000000       0x1c /Users/yeonwoo-kim/HealthHub/nacl_sdk/pepper_49/toolchain/mac_pnacl/bin/../x86_64-nacl/lib32/libcrt_common.a(lib_a-s_frexp.o)
 .note.GNU-stack
                0x0000000000000000        0x0 /Users/yeonwoo-kim/HealthHub/nacl_sdk/pepper_49/toolchain/mac_pnacl/bin/../x86_64-nacl/lib32/libcrt_common.a(lib_a-s_frexp.o)
 .group         0x0000000000000000        0x8 /Users/yeonwoo-kim/HealthHub/nacl_sdk/pepper_49/toolchain/mac_pnacl/bin/../x86_64-nacl/lib32/libcrt_common.a(lib_a-strcasecmp.o)
 .note.NaCl.ABI.x86-32
                0x0000000000000000       0x1c /Users/yeonwoo-kim/HealthHub/nacl_sdk/pepper_49/toolchain/mac_pnacl/bin/../x86_64-nacl/lib32/libcrt_common.a(lib_a-strcasecmp.o)
 .note.GNU-stack
                0x0000000000000000        0x0 /Users/yeonwoo-kim/HealthHub/nacl_sdk/pepper_49/toolchain/mac_pnacl/bin/../x86_64-nacl/lib32/libcrt_common.a(lib_a-strcasecmp.o)
 .group         0x0000000000000000        0x8 /Users/yeonwoo-kim/HealthHub/nacl_sdk/pepper_49/toolchain/mac_pnacl/bin/../x86_64-nacl/lib32/libcrt_common.a(lib_a-strchr.o)
 .note.NaCl.ABI.x86-32
                0x0000000000000000       0x1c /Users/yeonwoo-kim/HealthHub/nacl_sdk/pepper_49/toolchain/mac_pnacl/bin/../x86_64-nacl/lib32/libcrt_common.a(lib_a-strchr.o)
 .group         0x0000000000000000        0x8 /Users/yeonwoo-kim/HealthHub/nacl_sdk/pepper_49/toolchain/mac_pnacl/bin/../x86_64-nacl/lib32/libcrt_common.a(lib_a-strlcpy.o)
 .note.NaCl.ABI.x86-32
                0x0000000000000000       0x1c /Users/yeonwoo-kim/HealthHub/nacl_sdk/pepper_49/toolchain/mac_pnacl/bin/../x86_64-nacl/lib32/libcrt_common.a(lib_a-strlcpy.o)
 .note.GNU-stack
                0x0000000000000000        0x0 /Users/yeonwoo-kim/HealthHub/nacl_sdk/pepper_49/toolchain/mac_pnacl/bin/../x86_64-nacl/lib32/libcrt_common.a(lib_a-strlcpy.o)
 .group         0x0000000000000000        0x8 /Users/yeonwoo-kim/HealthHub/nacl_sdk/pepper_49/toolchain/mac_pnacl/bin/../x86_64-nacl/lib32/libcrt_common.a(lib_a-strncasecmp.o)
 .note.NaCl.ABI.x86-32
                0x0000000000000000       0x1c /Users/yeonwoo-kim/HealthHub/nacl_sdk/pepper_49/toolchain/mac_pnacl/bin/../x86_64-nacl/lib32/libcrt_common.a(lib_a-strncasecmp.o)
 .note.GNU-stack
                0x0000000000000000        0x0 /Users/yeonwoo-kim/HealthHub/nacl_sdk/pepper_49/toolchain/mac_pnacl/bin/../x86_64-nacl/lib32/libcrt_common.a(lib_a-strncasecmp.o)
 .group         0x0000000000000000        0x8 /Users/yeonwoo-kim/HealthHub/nacl_sdk/pepper_49/toolchain/mac_pnacl/bin/../x86_64-nacl/lib32/libcrt_common.a(lib_a-strncpy.o)
 .note.NaCl.ABI.x86-32
                0x0000000000000000       0x1c /Users/yeonwoo-kim/HealthHub/nacl_sdk/pepper_49/toolchain/mac_pnacl/bin/../x86_64-nacl/lib32/libcrt_common.a(lib_a-strncpy.o)
 .note.GNU-stack
                0x0000000000000000        0x0 /Users/yeonwoo-kim/HealthHub/nacl_sdk/pepper_49/toolchain/mac_pnacl/bin/../x86_64-nacl/lib32/libcrt_common.a(lib_a-strncpy.o)
 .group         0x0000000000000000        0x8 /Users/yeonwoo-kim/HealthHub/nacl_sdk/pepper_49/toolchain/mac_pnacl/bin/../x86_64-nacl/lib32/libcrt_common.a(lib_a-strtol.o)
 .note.NaCl.ABI.x86-32
                0x0000000000000000       0x1c /Users/yeonwoo-kim/HealthHub/nacl_sdk/pepper_49/toolchain/mac_pnacl/bin/../x86_64-nacl/lib32/libcrt_common.a(lib_a-strtol.o)
 .note.GNU-stack
                0x0000000000000000        0x0 /Users/yeonwoo-kim/HealthHub/nacl_sdk/pepper_49/toolchain/mac_pnacl/bin/../x86_64-nacl/lib32/libcrt_common.a(lib_a-strtol.o)
 .group         0x0000000000000000        0x8 /Users/yeonwoo-kim/HealthHub/nacl_sdk/pepper_49/toolchain/mac_pnacl/bin/../x86_64-nacl/lib32/libcrt_common.a(lib_a-svfprintf.o)
 .note.NaCl.ABI.x86-32
                0x0000000000000000       0x1c /Users/yeonwoo-kim/HealthHub/nacl_sdk/pepper_49/toolchain/mac_pnacl/bin/../x86_64-nacl/lib32/libcrt_common.a(lib_a-svfprintf.o)
 .note.GNU-stack
                0x0000000000000000        0x0 /Users/yeonwoo-kim/HealthHub/nacl_sdk/pepper_49/toolchain/mac_pnacl/bin/../x86_64-nacl/lib32/libcrt_common.a(lib_a-svfprintf.o)
 .group         0x0000000000000000        0x8 /Users/yeonwoo-kim/HealthHub/nacl_sdk/pepper_49/toolchain/mac_pnacl/bin/../x86_64-nacl/lib32/libcrt_common.a(lib_a-vfiprintf.o)
 .note.NaCl.ABI.x86-32
                0x0000000000000000       0x1c /Users/yeonwoo-kim/HealthHub/nacl_sdk/pepper_49/toolchain/mac_pnacl/bin/../x86_64-nacl/lib32/libcrt_common.a(lib_a-vfiprintf.o)
 .note.GNU-stack
                0x0000000000000000        0x0 /Users/yeonwoo-kim/HealthHub/nacl_sdk/pepper_49/toolchain/mac_pnacl/bin/../x86_64-nacl/lib32/libcrt_common.a(lib_a-vfiprintf.o)
 .group         0x0000000000000000        0x8 /Users/yeonwoo-kim/HealthHub/nacl_sdk/pepper_49/toolchain/mac_pnacl/bin/../x86_64-nacl/lib32/libcrt_common.a(lib_a-wcsnrtombs.o)
 .note.NaCl.ABI.x86-32
                0x0000000000000000       0x1c /Users/yeonwoo-kim/HealthHub/nacl_sdk/pepper_49/toolchain/mac_pnacl/bin/../x86_64-nacl/lib32/libcrt_common.a(lib_a-wcsnrtombs.o)
 .note.GNU-stack
                0x0000000000000000        0x0 /Users/yeonwoo-kim/HealthHub/nacl_sdk/pepper_49/toolchain/mac_pnacl/bin/../x86_64-nacl/lib32/libcrt_common.a(lib_a-wcsnrtombs.o)
 .group         0x0000000000000000        0x8 /Users/yeonwoo-kim/HealthHub/nacl_sdk/pepper_49/toolchain/mac_pnacl/bin/../x86_64-nacl/lib32/libcrt_common.a(lib_a-ctype_.o)
 .note.NaCl.ABI.x86-32
                0x0000000000000000       0x1c /Users/yeonwoo-kim/HealthHub/nacl_sdk/pepper_49/toolchain/mac_pnacl/bin/../x86_64-nacl/lib32/libcrt_common.a(lib_a-ctype_.o)
 .note.GNU-stack
                0x0000000000000000        0x0 /Users/yeonwoo-kim/HealthHub/nacl_sdk/pepper_49/toolchain/mac_pnacl/bin/../x86_64-nacl/lib32/libcrt_common.a(lib_a-ctype_.o)
 .group         0x0000000000000000        0x8 /Users/yeonwoo-kim/HealthHub/nacl_sdk/pepper_49/toolchain/mac_pnacl/bin/../x86_64-nacl/lib32/libcrt_common.a(lib_a-fputwc.o)
 .note.NaCl.ABI.x86-32
                0x0000000000000000       0x1c /Users/yeonwoo-kim/HealthHub/nacl_sdk/pepper_49/toolchain/mac_pnacl/bin/../x86_64-nacl/lib32/libcrt_common.a(lib_a-fputwc.o)
 .note.GNU-stack
                0x0000000000000000        0x0 /Users/yeonwoo-kim/HealthHub/nacl_sdk/pepper_49/toolchain/mac_pnacl/bin/../x86_64-nacl/lib32/libcrt_common.a(lib_a-fputwc.o)
 .group         0x0000000000000000        0x8 /Users/yeonwoo-kim/HealthHub/nacl_sdk/pepper_49/toolchain/mac_pnacl/bin/../x86_64-nacl/lib32/libcrt_common.a(lib_a-svfiprintf.o)
 .note.NaCl.ABI.x86-32
                0x0000000000000000       0x1c /Users/yeonwoo-kim/HealthHub/nacl_sdk/pepper_49/toolchain/mac_pnacl/bin/../x86_64-nacl/lib32/libcrt_common.a(lib_a-svfiprintf.o)
 .note.GNU-stack
                0x0000000000000000        0x0 /Users/yeonwoo-kim/HealthHub/nacl_sdk/pepper_49/toolchain/mac_pnacl/bin/../x86_64-nacl/lib32/libcrt_common.a(lib_a-svfiprintf.o)
 .group         0x0000000000000000        0x8 /Users/yeonwoo-kim/HealthHub/nacl_sdk/pepper_49/toolchain/mac_pnacl/bin/../x86_64-nacl/lib32/libcrt_common.a(lib_a-wbuf.o)
 .note.NaCl.ABI.x86-32
                0x0000000000000000       0x1c /Users/yeonwoo-kim/HealthHub/nacl_sdk/pepper_49/toolchain/mac_pnacl/bin/../x86_64-nacl/lib32/libcrt_common.a(lib_a-wbuf.o)
 .note.GNU-stack
                0x0000000000000000        0x0 /Users/yeonwoo-kim/HealthHub/nacl_sdk/pepper_49/toolchain/mac_pnacl/bin/../x86_64-nacl/lib32/libcrt_common.a(lib_a-wbuf.o)
 .group         0x0000000000000000        0x8 /Users/yeonwoo-kim/HealthHub/nacl_sdk/pepper_49/toolchain/mac_pnacl/bin/../x86_64-nacl/lib32/libnacl.a(close.o)
 .note.NaCl.ABI.x86-32
                0x0000000000000000       0x1c /Users/yeonwoo-kim/HealthHub/nacl_sdk/pepper_49/toolchain/mac_pnacl/bin/../x86_64-nacl/lib32/libnacl.a(close.o)
 .note.GNU-stack
                0x0000000000000000        0x0 /Users/yeonwoo-kim/HealthHub/nacl_sdk/pepper_49/toolchain/mac_pnacl/bin/../x86_64-nacl/lib32/libnacl.a(close.o)
 .group         0x0000000000000000        0x8 /Users/yeonwoo-kim/HealthHub/nacl_sdk/pepper_49/toolchain/mac_pnacl/bin/../x86_64-nacl/lib32/libnacl.a(fstat.o)
 .note.NaCl.ABI.x86-32
                0x0000000000000000       0x1c /Users/yeonwoo-kim/HealthHub/nacl_sdk/pepper_49/toolchain/mac_pnacl/bin/../x86_64-nacl/lib32/libnacl.a(fstat.o)
 .note.GNU-stack
                0x0000000000000000        0x0 /Users/yeonwoo-kim/HealthHub/nacl_sdk/pepper_49/toolchain/mac_pnacl/bin/../x86_64-nacl/lib32/libnacl.a(fstat.o)
 .group         0x0000000000000000        0x8 /Users/yeonwoo-kim/HealthHub/nacl_sdk/pepper_49/toolchain/mac_pnacl/bin/../x86_64-nacl/lib32/libnacl.a(isatty.o)
 .note.NaCl.ABI.x86-32
                0x0000000000000000       0x1c /Users/yeonwoo-kim/HealthHub/nacl_sdk/pepper_49/toolchain/mac_pnacl/bin/../x86_64-nacl/lib32/libnacl.a(isatty.o)
 .note.GNU-stack
                0x0000000000000000        0x0 /Users/yeonwoo-kim/HealthHub/nacl_sdk/pepper_49/toolchain/mac_pnacl/bin/../x86_64-nacl/lib32/libnacl.a(isatty.o)
 .group         0x0000000000000000        0x8 /Users/yeonwoo-kim/HealthHub/nacl_sdk/pepper_49/toolchain/mac_pnacl/bin/../x86_64-nacl/lib32/libnacl.a(lseek.o)
 .note.NaCl.ABI.x86-32
                0x0000000000000000       0x1c /Users/yeonwoo-kim/HealthHub/nacl_sdk/pepper_49/toolchain/mac_pnacl/bin/../x86_64-nacl/lib32/libnacl.a(lseek.o)
 .note.GNU-stack
                0x0000000000000000        0x0 /Users/yeonwoo-kim/HealthHub/nacl_sdk/pepper_49/toolchain/mac_pnacl/bin/../x86_64-nacl/lib32/libnacl.a(lseek.o)
 .group         0x0000000000000000        0x8 /Users/yeonwoo-kim/HealthHub/nacl_sdk/pepper_49/toolchain/mac_pnacl/bin/../x86_64-nacl/lib32/libnacl.a(nanosleep.o)
 .note.NaCl.ABI.x86-32
                0x0000000000000000       0x1c /Users/yeonwoo-kim/HealthHub/nacl_sdk/pepper_49/toolchain/mac_pnacl/bin/../x86_64-nacl/lib32/libnacl.a(nanosleep.o)
 .note.GNU-stack
                0x0000000000000000        0x0 /Users/yeonwoo-kim/HealthHub/nacl_sdk/pepper_49/toolchain/mac_pnacl/bin/../x86_64-nacl/lib32/libnacl.a(nanosleep.o)
 .group         0x0000000000000000        0x8 /Users/yeonwoo-kim/HealthHub/nacl_sdk/pepper_49/toolchain/mac_pnacl/bin/../x86_64-nacl/lib32/libnacl.a(nacl_irt_fdio.o)
 .note.NaCl.ABI.x86-32
                0x0000000000000000       0x1c /Users/yeonwoo-kim/HealthHub/nacl_sdk/pepper_49/toolchain/mac_pnacl/bin/../x86_64-nacl/lib32/libnacl.a(nacl_irt_fdio.o)
 .note.GNU-stack
                0x0000000000000000        0x0 /Users/yeonwoo-kim/HealthHub/nacl_sdk/pepper_49/toolchain/mac_pnacl/bin/../x86_64-nacl/lib32/libnacl.a(nacl_irt_fdio.o)
 .group         0x0000000000000000        0x8 /Users/yeonwoo-kim/HealthHub/nacl_sdk/pepper_49/toolchain/mac_pnacl/bin/../x86_64-nacl/lib32/libnacl.a(read.o)
 .note.NaCl.ABI.x86-32
                0x0000000000000000       0x1c /Users/yeonwoo-kim/HealthHub/nacl_sdk/pepper_49/toolchain/mac_pnacl/bin/../x86_64-nacl/lib32/libnacl.a(read.o)
 .note.GNU-stack
                0x0000000000000000        0x0 /Users/yeonwoo-kim/HealthHub/nacl_sdk/pepper_49/toolchain/mac_pnacl/bin/../x86_64-nacl/lib32/libnacl.a(read.o)
 .group         0x0000000000000000        0x8 /Users/yeonwoo-kim/HealthHub/nacl_sdk/pepper_49/toolchain/mac_pnacl/bin/../lib/clang/3.7.0/lib/i686-nacl/libgcc.a(udivdi3.o)
 .note.NaCl.ABI.x86-32
                0x0000000000000000       0x1c /Users/yeonwoo-kim/HealthHub/nacl_sdk/pepper_49/toolchain/mac_pnacl/bin/../lib/clang/3.7.0/lib/i686-nacl/libgcc.a(udivdi3.o)
 .note.GNU-stack
                0x0000000000000000        0x0 /Users/yeonwoo-kim/HealthHub/nacl_sdk/pepper_49/toolchain/mac_pnacl/bin/../lib/clang/3.7.0/lib/i686-nacl/libgcc.a(udivdi3.o)
 .group         0x0000000000000000        0x8 /Users/yeonwoo-kim/HealthHub/nacl_sdk/pepper_49/toolchain/mac_pnacl/bin/../lib/clang/3.7.0/lib/i686-nacl/libgcc.a(udivmoddi4.o)
 .note.NaCl.ABI.x86-32
                0x0000000000000000       0x1c /Users/yeonwoo-kim/HealthHub/nacl_sdk/pepper_49/toolchain/mac_pnacl/bin/../lib/clang/3.7.0/lib/i686-nacl/libgcc.a(udivmoddi4.o)
 .note.GNU-stack
                0x0000000000000000        0x0 /Users/yeonwoo-kim/HealthHub/nacl_sdk/pepper_49/toolchain/mac_pnacl/bin/../lib/clang/3.7.0/lib/i686-nacl/libgcc.a(udivmoddi4.o)
 .group         0x0000000000000000        0x8 /Users/yeonwoo-kim/HealthHub/nacl_sdk/pepper_49/toolchain/mac_pnacl/bin/../lib/clang/3.7.0/lib/i686-nacl/libgcc.a(umoddi3.o)
 .note.NaCl.ABI.x86-32
                0x0000000000000000       0x1c /Users/yeonwoo-kim/HealthHub/nacl_sdk/pepper_49/toolchain/mac_pnacl/bin/../lib/clang/3.7.0/lib/i686-nacl/libgcc.a(umoddi3.o)
 .note.GNU-stack
                0x0000000000000000        0x0 /Users/yeonwoo-kim/HealthHub/nacl_sdk/pepper_49/toolchain/mac_pnacl/bin/../lib/clang/3.7.0/lib/i686-nacl/libgcc.a(umoddi3.o)
 .note.GNU-stack
                0x0000000000000000        0x0 /Users/yeonwoo-kim/HealthHub/nacl_sdk/pepper_49/toolchain/mac_pnacl/bin/../lib/clang/3.7.0/lib/i686-nacl/libgcc_eh.a(unwind-dw2-fde-glibc.o)
 .group         0x0000000000000000        0x8 /Users/yeonwoo-kim/HealthHub/nacl_sdk/pepper_49/toolchain/mac_pnacl/bin/../lib/clang/3.7.0/lib/i686-nacl/crtend.o
 .note.NaCl.ABI.x86-32
                0x0000000000000000       0x1c /Users/yeonwoo-kim/HealthHub/nacl_sdk/pepper_49/toolchain/mac_pnacl/bin/../lib/clang/3.7.0/lib/i686-nacl/crtend.o
 .note.GNU-stack
                0x0000000000000000        0x0 /Users/yeonwoo-kim/HealthHub/nacl_sdk/pepper_49/toolchain/mac_pnacl/bin/../lib/clang/3.7.0/lib/i686-nacl/crtend.o

Memory Configuration

Name             Origin             Length             Attributes
*default*        0x0000000000000000 0xffffffffffffffff

Linker script and memory map

LOAD /Users/yeonwoo-kim/HealthHub/nacl_sdk/pepper_49/toolchain/mac_pnacl/bin/../x86_64-nacl/lib32/crt1.o
LOAD /Users/yeonwoo-kim/HealthHub/nacl_sdk/pepper_49/toolchain/mac_pnacl/bin/../x86_64-nacl/lib32/crti.o
LOAD /Users/yeonwoo-kim/HealthHub/nacl_sdk/pepper_49/toolchain/mac_pnacl/bin/../lib/clang/3.7.0/lib/i686-nacl/crtbeginT.o
LOAD clang-newlib/Release/debugging_x86_32.o
LOAD /Users/yeonwoo-kim/HealthHub/nacl_sdk/pepper_49/lib/clang-newlib_x86_32/Release/liberror_handling.a
LOAD /Users/yeonwoo-kim/HealthHub/nacl_sdk/pepper_49/toolchain/mac_pnacl/bin/../x86_64-nacl/lib32/libppapi.a
LOAD /Users/yeonwoo-kim/HealthHub/nacl_sdk/pepper_49/toolchain/mac_pnacl/bin/../x86_64-nacl/lib32/libppapi_stub.a
LOAD /Users/yeonwoo-kim/HealthHub/nacl_sdk/pepper_49/toolchain/mac_pnacl/bin/../x86_64-nacl/lib32/libpthread.a
LOAD /Users/yeonwoo-kim/HealthHub/nacl_sdk/pepper_49/toolchain/mac_pnacl/bin/../x86_64-nacl/lib32/libc++.a
LOAD /Users/yeonwoo-kim/HealthHub/nacl_sdk/pepper_49/toolchain/mac_pnacl/bin/../x86_64-nacl/lib32/libm.a
START GROUP
LOAD /Users/yeonwoo-kim/HealthHub/nacl_sdk/pepper_49/toolchain/mac_pnacl/bin/../x86_64-nacl/lib32/libc.a
START GROUP
LOAD /Users/yeonwoo-kim/HealthHub/nacl_sdk/pepper_49/toolchain/mac_pnacl/bin/../x86_64-nacl/lib32/libnacl.a
LOAD /Users/yeonwoo-kim/HealthHub/nacl_sdk/pepper_49/toolchain/mac_pnacl/bin/../x86_64-nacl/lib32/libcrt_common.a
END GROUP
LOAD /Users/yeonwoo-kim/HealthHub/nacl_sdk/pepper_49/toolchain/mac_pnacl/bin/../x86_64-nacl/lib32/libpthread.a
LOAD /Users/yeonwoo-kim/HealthHub/nacl_sdk/pepper_49/toolchain/mac_pnacl/bin/../lib/clang/3.7.0/lib/i686-nacl/libgcc.a
LOAD /Users/yeonwoo-kim/HealthHub/nacl_sdk/pepper_49/toolchain/mac_pnacl/bin/../lib/clang/3.7.0/lib/i686-nacl/libgcc_eh.a
END GROUP
LOAD /Users/yeonwoo-kim/HealthHub/nacl_sdk/pepper_49/toolchain/mac_pnacl/bin/../lib/clang/3.7.0/lib/i686-nacl/crtend.o
LOAD /Users/yeonwoo-kim/HealthHub/nacl_sdk/pepper_49/toolchain/mac_pnacl/bin/../x86_64-nacl/lib32/crtn.o
                0x0000000000020000                PROVIDE (__executable_start, 0x20000)
                0x0000000000020000                . = 0x20000

.init
 *(SORT(.init))

.plt            0x0000000000020000        0x0
 *(.plt)
 *(.iplt)
 .iplt          0x0000000000000000        0x0 /Users/yeonwoo-kim/HealthHub/nacl_sdk/pepper_49/toolchain/mac_pnacl/bin/../lib/clang/3.7.0/lib/i686-nacl/crtbeginT.o

.text           0x0000000000020000    0x207c0
 *(.text.unlikely .text.*_unlikely .text.unlikely.*)
 *(.text.exit .text.exit.*)
 .text.exit     0x0000000000020000       0x60 /Users/yeonwoo-kim/HealthHub/nacl_sdk/pepper_49/toolchain/mac_pnacl/bin/../x86_64-nacl/lib32/libcrt_common.a(lib_a-exit.o)
                0x0000000000020000                exit
 *(.text.startup .text.startup.*)
 *(.text.hot .text.hot.*)
 *(.text .stub .text.* .gnu.linkonce.t.*)
 .text          0x0000000000020060       0x40 /Users/yeonwoo-kim/HealthHub/nacl_sdk/pepper_49/toolchain/mac_pnacl/bin/../x86_64-nacl/lib32/crti.o
                0x0000000000020060                _init
                0x0000000000020080                _fini
 .text          0x00000000000200a0       0x80 /Users/yeonwoo-kim/HealthHub/nacl_sdk/pepper_49/toolchain/mac_pnacl/bin/../lib/clang/3.7.0/lib/i686-nacl/crtbeginT.o
 .text          0x0000000000020120      0x640 clang-newlib/Release/debugging_x86_32.o
                0x0000000000020120                layer5
                0x0000000000020140                layer4
                0x0000000000020160                layer3
                0x00000000000201a0                layer2
                0x00000000000201e0                layer1
                0x0000000000020220                NexeMain
                0x0000000000020280                PostMessage
                0x00000000000203e0                DumpJson
                0x00000000000204a0                PPP_InitializeModule
                0x0000000000020520                PPP_GetInterface
                0x0000000000020740                PPP_ShutdownModule
 .text          0x0000000000020760      0x880 /Users/yeonwoo-kim/HealthHub/nacl_sdk/pepper_49/lib/clang-newlib_x86_32/Release/liberror_handling.a(error_handling_x86_32.o)
                0x0000000000020760                EHGetTopFrame
                0x00000000000207a0                EHUnwindFrame
                0x0000000000020800                EHDefaultJsonHandler
                0x0000000000020ba0                EHRequestExceptionsRaw
                0x0000000000020da0                EHRequestExceptionStackOnThread
                0x0000000000020f80                EHRequestExceptionsJson
                0x0000000000020fc0                EHHanderInstalled
 .text          0x0000000000020fe0      0x1c0 /Users/yeonwoo-kim/HealthHub/nacl_sdk/pepper_49/lib/clang-newlib_x86_32/Release/liberror_handling.a(string_stream_x86_32.o)
                0x0000000000020fe0                ssinit
                0x0000000000021000                ssfree
                0x0000000000021040                ssvprintf
                0x0000000000021140                ssprintf
 .text          0x00000000000211a0       0x40 /Users/yeonwoo-kim/HealthHub/nacl_sdk/pepper_49/toolchain/mac_pnacl/bin/../x86_64-nacl/lib32/libppapi_stub.a(plugin_main_irt_21ce9d26.o)
                0x00000000000211a0                main
 .text          0x00000000000211e0       0x60 /Users/yeonwoo-kim/HealthHub/nacl_sdk/pepper_49/toolchain/mac_pnacl/bin/../x86_64-nacl/lib32/libppapi_stub.a(ppapi_plugin_main_399d0cf7.o)
                0x00000000000211e0                PpapiPluginMain
 .text          0x0000000000021240      0x1a0 /Users/yeonwoo-kim/HealthHub/nacl_sdk/pepper_49/toolchain/mac_pnacl/bin/../x86_64-nacl/lib32/libppapi_stub.a(ppapi_plugin_start_8da67623.o)
                0x0000000000021240                PpapiPluginStart
 .text          0x00000000000213e0      0x140 /Users/yeonwoo-kim/HealthHub/nacl_sdk/pepper_49/toolchain/mac_pnacl/bin/../x86_64-nacl/lib32/libppapi_stub.a(thread_creator_ccf263e1.o)
                0x00000000000213e0                __nacl_register_thread_creator
 .text          0x0000000000021520     0x1760 /Users/yeonwoo-kim/HealthHub/nacl_sdk/pepper_49/toolchain/mac_pnacl/bin/../x86_64-nacl/lib32/libpthread.a(nc_thread.o)
                0x0000000000021520                __nc_initialize_globals
                0x0000000000021620                __nc_initialize_unjoinable_thread
                0x00000000000216c0                __pthread_initialize
                0x0000000000021880                pthread_create
                0x0000000000021e20                pthread_cleanup_push
                0x0000000000021e80                pthread_cleanup_pop
                0x0000000000021f00                pthread_exit
                0x0000000000022340                __nc_tsd_exit
                0x0000000000022420                pthread_join
                0x0000000000022560                pthread_self
                0x00000000000225a0                pthread_detach
                0x0000000000022660                pthread_kill
                0x0000000000022680                pthread_equal
                0x00000000000226a0                pthread_setschedprio
                0x0000000000022720                pthread_attr_init
                0x0000000000022760                pthread_attr_destroy
                0x0000000000022780                pthread_attr_setdetachstate
                0x00000000000227a0                pthread_attr_getdetachstate
                0x00000000000227c0                pthread_attr_setscope
                0x0000000000022800                pthread_attr_getscope
                0x0000000000022820                pthread_attr_setstacksize
                0x0000000000022860                pthread_attr_getstacksize
                0x0000000000022880                __local_lock_init
                0x0000000000022900                __local_lock_init_recursive
                0x0000000000022980                __local_lock_close
                0x00000000000229a0                __local_lock_close_recursive
                0x00000000000229c0                __local_lock_acquire
                0x00000000000229e0                __local_lock_acquire_recursive
                0x0000000000022a00                __local_lock_try_acquire
                0x0000000000022a40                __local_lock_try_acquire_recursive
                0x0000000000022a80                __local_lock_release
                0x0000000000022aa0                __local_lock_release_recursive
                0x0000000000022ac0                pthread_key_create
                0x0000000000022b40                pthread_key_delete
                0x0000000000022ba0                pthread_setspecific
                0x0000000000022c40                pthread_getspecific
 .text          0x0000000000022c80      0x660 /Users/yeonwoo-kim/HealthHub/nacl_sdk/pepper_49/toolchain/mac_pnacl/bin/../x86_64-nacl/lib32/libpthread.a(nc_mutex.o)
                0x0000000000022c80                pthread_mutex_init
                0x0000000000022cc0                pthread_mutex_destroy
                0x0000000000022d00                pthread_mutex_trylock
                0x0000000000022d80                pthread_mutex_lock
                0x0000000000022ea0                pthread_mutex_timedlock
                0x0000000000023060                pthread_mutex_unlock
                0x0000000000023140                pthread_once
                0x0000000000023220                pthread_mutexattr_init
                0x0000000000023240                pthread_mutexattr_destroy
                0x0000000000023260                pthread_mutexattr_settype
                0x0000000000023280                pthread_mutexattr_gettype
                0x00000000000232a0                pthread_mutexattr_setpshared
                0x00000000000232c0                pthread_mutexattr_getpshared
 .text          0x00000000000232e0      0x2c0 /Users/yeonwoo-kim/HealthHub/nacl_sdk/pepper_49/toolchain/mac_pnacl/bin/../x86_64-nacl/lib32/libpthread.a(nc_condvar.o)
                0x00000000000232e0                pthread_cond_init
                0x0000000000023300                pthread_cond_destroy
                0x0000000000023320                pthread_cond_signal
                0x0000000000023380                pthread_cond_broadcast
                0x00000000000233e0                pthread_cond_wait
                0x0000000000023460                pthread_cond_timedwait_abs
                0x00000000000234e0                pthread_condattr_init
                0x0000000000023500                pthread_condattr_destroy
                0x0000000000023520                pthread_condattr_getpshared
                0x0000000000023540                pthread_condattr_setpshared
                0x0000000000023560                pthread_condattr_getclock
                0x0000000000023580                pthread_condattr_setclock
 .text          0x00000000000235a0      0x500 /Users/yeonwoo-kim/HealthHub/nacl_sdk/pepper_49/toolchain/mac_pnacl/bin/../x86_64-nacl/lib32/libpthread.a(valgrind_annotations.o)
                0x00000000000235a0                NACL_AnnotateRWLockCreate
                0x00000000000235c0                NACL_AnnotateRWLockDestroy
                0x00000000000235e0                NACL_AnnotateRWLockAcquired
                0x0000000000023600                NACL_AnnotateRWLockReleased
                0x0000000000023620                NACL_AnnotateBarrierInit
                0x0000000000023640                NACL_AnnotateBarrierWaitBefore
                0x0000000000023660                NACL_AnnotateBarrierWaitAfter
                0x0000000000023680                NACL_AnnotateBarrierDestroy
                0x00000000000236a0                NACL_AnnotateCondVarWait
                0x00000000000236c0                NACL_AnnotateCondVarSignal
                0x00000000000236e0                NACL_AnnotateCondVarSignalAll
                0x0000000000023700                NACL_AnnotateHappensBefore
                0x0000000000023720                NACL_AnnotateHappensAfter
                0x0000000000023740                NACL_AnnotatePublishMemoryRange
                0x0000000000023760                NACL_AnnotateUnpublishMemoryRange
                0x0000000000023780                NACL_AnnotatePCQCreate
                0x00000000000237a0                NACL_AnnotatePCQDestroy
                0x00000000000237c0                NACL_AnnotatePCQPut
                0x00000000000237e0                NACL_AnnotatePCQGet
                0x0000000000023800                NACL_AnnotateNewMemory
                0x0000000000023820                NACL_AnnotateExpectRace
                0x0000000000023840                NACL_AnnotateFlushExpectedRaces
                0x0000000000023860                NACL_AnnotateBenignRace
                0x0000000000023880                NACL_AnnotateBenignRaceSized
                0x00000000000238a0                NACL_AnnotateMutexIsUsedAsCondVar
                0x00000000000238c0                NACL_AnnotateMutexIsNotPHB
                0x00000000000238e0                NACL_AnnotateTraceMemory
                0x0000000000023900                NACL_AnnotateThreadName
                0x0000000000023920                NACL_AnnotateIgnoreReadsBegin
                0x0000000000023940                NACL_AnnotateIgnoreReadsEnd
                0x0000000000023960                NACL_AnnotateIgnoreWritesBegin
                0x0000000000023980                NACL_AnnotateIgnoreWritesEnd
                0x00000000000239a0                NACL_AnnotateIgnoreSyncBegin
                0x00000000000239c0                NACL_AnnotateIgnoreSyncEnd
                0x00000000000239e0                NACL_AnnotateEnableRaceDetection
                0x0000000000023a00                NACL_AnnotateNoOp
                0x0000000000023a20                NACL_AnnotateFlushState
                0x0000000000023a40                RunningOnValgrind
 .text          0x0000000000023aa0       0x60 /Users/yeonwoo-kim/HealthHub/nacl_sdk/pepper_49/toolchain/mac_pnacl/bin/../x86_64-nacl/lib32/libpthread.a(nc_init_irt.o)
                0x0000000000023aa0                __nc_initialize_interfaces
 .text          0x0000000000023b00      0x2c0 /Users/yeonwoo-kim/HealthHub/nacl_sdk/pepper_49/toolchain/mac_pnacl/bin/../x86_64-nacl/lib32/libnacl.a(nacl_irt.o)
                0x0000000000023c00                __libnacl_irt_query
                0x0000000000023ce0                __libnacl_mandatory_irt_query
                0x0000000000023d60                __libnacl_irt_init_fn
 .text          0x0000000000023dc0       0x40 /Users/yeonwoo-kim/HealthHub/nacl_sdk/pepper_49/toolchain/mac_pnacl/bin/../x86_64-nacl/lib32/libnacl.a(_exit.o)
                0x0000000000023dc0                _exit
 .text          0x0000000000023e00       0xa0 /Users/yeonwoo-kim/HealthHub/nacl_sdk/pepper_49/toolchain/mac_pnacl/bin/../x86_64-nacl/lib32/libnacl.a(mmap.o)
                0x0000000000023e00                mmap
 .text          0x0000000000023ea0       0x60 /Users/yeonwoo-kim/HealthHub/nacl_sdk/pepper_49/toolchain/mac_pnacl/bin/../x86_64-nacl/lib32/libnacl.a(munmap.o)
                0x0000000000023ea0                munmap
 .text          0x0000000000023f00       0x20 /Users/yeonwoo-kim/HealthHub/nacl_sdk/pepper_49/toolchain/mac_pnacl/bin/../x86_64-nacl/lib32/libnacl.a(nacl_interface_query.o)
                0x0000000000023f00                nacl_interface_query
 .text          0x0000000000023f20       0x80 /Users/yeonwoo-kim/HealthHub/nacl_sdk/pepper_49/toolchain/mac_pnacl/bin/../x86_64-nacl/lib32/libnacl.a(write.o)
                0x0000000000023f20                write
 .text          0x0000000000023fa0        0x0 /Users/yeonwoo-kim/HealthHub/nacl_sdk/pepper_49/toolchain/mac_pnacl/bin/../x86_64-nacl/lib32/libnacl.a(environ.o)
 .text          0x0000000000023fa0     0x51a0 /Users/yeonwoo-kim/HealthHub/nacl_sdk/pepper_49/toolchain/mac_pnacl/bin/../x86_64-nacl/lib32/libnacl.a(malloc.o)
                0x0000000000023fa0                malloc
                0x0000000000025a20                free
                0x0000000000026a40                calloc
                0x0000000000026ac0                realloc
                0x00000000000270c0                realloc_in_place
                0x00000000000271c0                memalign
                0x0000000000027420                posix_memalign
                0x00000000000274c0                valloc
                0x0000000000027620                pvalloc
                0x0000000000027780                independent_calloc
                0x0000000000027c20                independent_comalloc
                0x0000000000027c60                bulk_free
                0x0000000000027de0                malloc_trim
                0x0000000000027fa0                malloc_footprint
                0x0000000000027fc0                malloc_max_footprint
                0x0000000000027fe0                malloc_footprint_limit
                0x0000000000028000                malloc_set_footprint_limit
                0x0000000000028040                mallinfo
                0x0000000000028320                malloc_stats
                0x0000000000028600                mallopt
                0x0000000000028760                malloc_usable_size
                0x00000000000287a0                _malloc_r
                0x00000000000287e0                _calloc_r
                0x0000000000028860                _realloc_r
                0x00000000000288a0                _free_r
 .text          0x0000000000029140      0x100 /Users/yeonwoo-kim/HealthHub/nacl_sdk/pepper_49/toolchain/mac_pnacl/bin/../x86_64-nacl/lib32/libnacl.a(start.o)
                0x0000000000029140                _start
 .text          0x0000000000029240       0x20 /Users/yeonwoo-kim/HealthHub/nacl_sdk/pepper_49/toolchain/mac_pnacl/bin/../x86_64-nacl/lib32/libnacl.a(nacl_read_tp.o)
                0x0000000000029240                __nacl_read_tp
 .text          0x0000000000029260       0xe0 /Users/yeonwoo-kim/HealthHub/nacl_sdk/pepper_49/toolchain/mac_pnacl/bin/../x86_64-nacl/lib32/libnacl.a(pthread_initialize_minimal.o)
                0x0000000000029260                __pthread_initialize_minimal
 .text          0x0000000000029340      0x2a0 /Users/yeonwoo-kim/HealthHub/nacl_sdk/pepper_49/toolchain/mac_pnacl/bin/../x86_64-nacl/lib32/libnacl.a(tls.o)
                0x0000000000029340                __nacl_tls_initialize_memory
                0x0000000000029580                __nacl_tls_combined_size
 .text          0x00000000000295e0      0x180 /Users/yeonwoo-kim/HealthHub/nacl_sdk/pepper_49/toolchain/mac_pnacl/bin/../x86_64-nacl/lib32/libnacl.a(nacl_irt_init.o)
                0x00000000000295e0                __libnacl_irt_init
 .text          0x0000000000029760       0x20 /Users/yeonwoo-kim/HealthHub/nacl_sdk/pepper_49/toolchain/mac_pnacl/bin/../x86_64-nacl/lib32/libnacl.a(nacl_tls_get.o)
                0x0000000000029760                nacl_tls_get
 .text          0x0000000000029780       0x20 /Users/yeonwoo-kim/HealthHub/nacl_sdk/pepper_49/toolchain/mac_pnacl/bin/../x86_64-nacl/lib32/libnacl.a(nacl_tls_init.o)
                0x0000000000029780                nacl_tls_init
 .text          0x00000000000297a0       0x40 /Users/yeonwoo-kim/HealthHub/nacl_sdk/pepper_49/toolchain/mac_pnacl/bin/../x86_64-nacl/lib32/libnacl.a(abort.o)
                0x00000000000297a0                abort
 .text          0x00000000000297e0       0x60 /Users/yeonwoo-kim/HealthHub/nacl_sdk/pepper_49/toolchain/mac_pnacl/bin/../x86_64-nacl/lib32/libnacl.a(sched_yield.o)
                0x00000000000297e0                sched_yield
 .text          0x0000000000029840       0x60 /Users/yeonwoo-kim/HealthHub/nacl_sdk/pepper_49/toolchain/mac_pnacl/bin/../x86_64-nacl/lib32/libnacl.a(sysconf.o)
                0x0000000000029840                sysconf
 .text          0x00000000000298a0        0x0 /Users/yeonwoo-kim/HealthHub/nacl_sdk/pepper_49/toolchain/mac_pnacl/bin/../x86_64-nacl/lib32/libcrt_common.a(lib_a-atexit.o)
 .text.atexit   0x00000000000298a0       0x60 /Users/yeonwoo-kim/HealthHub/nacl_sdk/pepper_49/toolchain/mac_pnacl/bin/../x86_64-nacl/lib32/libcrt_common.a(lib_a-atexit.o)
                0x00000000000298a0                atexit
 .text          0x0000000000029900        0x0 /Users/yeonwoo-kim/HealthHub/nacl_sdk/pepper_49/toolchain/mac_pnacl/bin/../x86_64-nacl/lib32/libcrt_common.a(lib_a-errno.o)
 .text.__errno  0x0000000000029900       0x20 /Users/yeonwoo-kim/HealthHub/nacl_sdk/pepper_49/toolchain/mac_pnacl/bin/../x86_64-nacl/lib32/libcrt_common.a(lib_a-errno.o)
                0x0000000000029900                __errno
 .text          0x0000000000029920        0x0 /Users/yeonwoo-kim/HealthHub/nacl_sdk/pepper_49/toolchain/mac_pnacl/bin/../x86_64-nacl/lib32/libcrt_common.a(lib_a-exit.o)
 .text          0x0000000000029920        0x0 /Users/yeonwoo-kim/HealthHub/nacl_sdk/pepper_49/toolchain/mac_pnacl/bin/../x86_64-nacl/lib32/libcrt_common.a(lib_a-fflush.o)
 .text.__sflush_r
                0x0000000000029920      0x240 /Users/yeonwoo-kim/HealthHub/nacl_sdk/pepper_49/toolchain/mac_pnacl/bin/../x86_64-nacl/lib32/libcrt_common.a(lib_a-fflush.o)
                0x0000000000029920                __sflush_r
 .text._fflush_r
                0x0000000000029b60       0xc0 /Users/yeonwoo-kim/HealthHub/nacl_sdk/pepper_49/toolchain/mac_pnacl/bin/../x86_64-nacl/lib32/libcrt_common.a(lib_a-fflush.o)
                0x0000000000029b60                _fflush_r
 .text.fflush   0x0000000000029c20       0xe0 /Users/yeonwoo-kim/HealthHub/nacl_sdk/pepper_49/toolchain/mac_pnacl/bin/../x86_64-nacl/lib32/libcrt_common.a(lib_a-fflush.o)
                0x0000000000029c20                fflush
 .text          0x0000000000029d00        0x0 /Users/yeonwoo-kim/HealthHub/nacl_sdk/pepper_49/toolchain/mac_pnacl/bin/../x86_64-nacl/lib32/libcrt_common.a(lib_a-findfp.o)
 .text.__sfmoreglue
                0x0000000000029d00       0xa0 /Users/yeonwoo-kim/HealthHub/nacl_sdk/pepper_49/toolchain/mac_pnacl/bin/../x86_64-nacl/lib32/libcrt_common.a(lib_a-findfp.o)
                0x0000000000029d00                __sfmoreglue
 .text.__sfp    0x0000000000029da0      0x220 /Users/yeonwoo-kim/HealthHub/nacl_sdk/pepper_49/toolchain/mac_pnacl/bin/../x86_64-nacl/lib32/libcrt_common.a(lib_a-findfp.o)
                0x0000000000029da0                __sfp
 .text.__sinit  0x0000000000029fc0      0x300 /Users/yeonwoo-kim/HealthHub/nacl_sdk/pepper_49/toolchain/mac_pnacl/bin/../x86_64-nacl/lib32/libcrt_common.a(lib_a-findfp.o)
                0x0000000000029fc0                __sinit
 .text.__sfp_lock_acquire
                0x000000000002a2c0       0x40 /Users/yeonwoo-kim/HealthHub/nacl_sdk/pepper_49/toolchain/mac_pnacl/bin/../x86_64-nacl/lib32/libcrt_common.a(lib_a-findfp.o)
                0x000000000002a2c0                __sfp_lock_acquire
 .text.__sfp_lock_release
                0x000000000002a300       0x40 /Users/yeonwoo-kim/HealthHub/nacl_sdk/pepper_49/toolchain/mac_pnacl/bin/../x86_64-nacl/lib32/libcrt_common.a(lib_a-findfp.o)
                0x000000000002a300                __sfp_lock_release
 .text._cleanup_r
                0x000000000002a340       0x40 /Users/yeonwoo-kim/HealthHub/nacl_sdk/pepper_49/toolchain/mac_pnacl/bin/../x86_64-nacl/lib32/libcrt_common.a(lib_a-findfp.o)
                0x000000000002a340                _cleanup_r
 .text._cleanup
                0x000000000002a380       0x40 /Users/yeonwoo-kim/HealthHub/nacl_sdk/pepper_49/toolchain/mac_pnacl/bin/../x86_64-nacl/lib32/libcrt_common.a(lib_a-findfp.o)
                0x000000000002a380                _cleanup
 .text.__sinit_lock_acquire
                0x000000000002a3c0       0x40 /Users/yeonwoo-kim/HealthHub/nacl_sdk/pepper_49/toolchain/mac_pnacl/bin/../x86_64-nacl/lib32/libcrt_common.a(lib_a-findfp.o)
                0x000000000002a3c0                __sinit_lock_acquire
 .text.__sinit_lock_release
                0x000000000002a400       0x40 /Users/yeonwoo-kim/HealthHub/nacl_sdk/pepper_49/toolchain/mac_pnacl/bin/../x86_64-nacl/lib32/libcrt_common.a(lib_a-findfp.o)
                0x000000000002a400                __sinit_lock_release
 .text.__fp_lock_all
                0x000000000002a440       0x60 /Users/yeonwoo-kim/HealthHub/nacl_sdk/pepper_49/toolchain/mac_pnacl/bin/../x86_64-nacl/lib32/libcrt_common.a(lib_a-findfp.o)
                0x000000000002a440                __fp_lock_all
 .text.__fp_lock
                0x000000000002a4a0       0x40 /Users/yeonwoo-kim/HealthHub/nacl_sdk/pepper_49/toolchain/mac_pnacl/bin/../x86_64-nacl/lib32/libcrt_common.a(lib_a-findfp.o)
 .text.__fp_unlock_all
                0x000000000002a4e0       0x80 /Users/yeonwoo-kim/HealthHub/nacl_sdk/pepper_49/toolchain/mac_pnacl/bin/../x86_64-nacl/lib32/libcrt_common.a(lib_a-findfp.o)
                0x000000000002a4e0                __fp_unlock_all
 .text.__fp_unlock
                0x000000000002a560       0x40 /Users/yeonwoo-kim/HealthHub/nacl_sdk/pepper_49/toolchain/mac_pnacl/bin/../x86_64-nacl/lib32/libcrt_common.a(lib_a-findfp.o)
 .text          0x000000000002a5a0        0x0 /Users/yeonwoo-kim/HealthHub/nacl_sdk/pepper_49/toolchain/mac_pnacl/bin/../x86_64-nacl/lib32/libcrt_common.a(lib_a-fini.o)
 .text.__libc_fini_array
                0x000000000002a5a0       0x60 /Users/yeonwoo-kim/HealthHub/nacl_sdk/pepper_49/toolchain/mac_pnacl/bin/../x86_64-nacl/lib32/libcrt_common.a(lib_a-fini.o)
                0x000000000002a5a0                __libc_fini_array
 .text          0x000000000002a600        0x0 /Users/yeonwoo-kim/HealthHub/nacl_sdk/pepper_49/toolchain/mac_pnacl/bin/../x86_64-nacl/lib32/libcrt_common.a(lib_a-fprintf.o)
 .text._fprintf_r
                0x000000000002a600       0x60 /Users/yeonwoo-kim/HealthHub/nacl_sdk/pepper_49/toolchain/mac_pnacl/bin/../x86_64-nacl/lib32/libcrt_common.a(lib_a-fprintf.o)
                0x000000000002a600                _fprintf_r
 .text.fprintf  0x000000000002a660       0x60 /Users/yeonwoo-kim/HealthHub/nacl_sdk/pepper_49/toolchain/mac_pnacl/bin/../x86_64-nacl/lib32/libcrt_common.a(lib_a-fprintf.o)
                0x000000000002a660                fprintf
 .text          0x000000000002a6c0        0x0 /Users/yeonwoo-kim/HealthHub/nacl_sdk/pepper_49/toolchain/mac_pnacl/bin/../x86_64-nacl/lib32/libcrt_common.a(lib_a-fwalk.o)
 .text._fwalk   0x000000000002a6c0      0x120 /Users/yeonwoo-kim/HealthHub/nacl_sdk/pepper_49/toolchain/mac_pnacl/bin/../x86_64-nacl/lib32/libcrt_common.a(lib_a-fwalk.o)
                0x000000000002a6c0                _fwalk
 .text._fwalk_reent
                0x000000000002a7e0      0x100 /Users/yeonwoo-kim/HealthHub/nacl_sdk/pepper_49/toolchain/mac_pnacl/bin/../x86_64-nacl/lib32/libcrt_common.a(lib_a-fwalk.o)
                0x000000000002a7e0                _fwalk_reent
 .text          0x000000000002a8e0        0x0 /Users/yeonwoo-kim/HealthHub/nacl_sdk/pepper_49/toolchain/mac_pnacl/bin/../x86_64-nacl/lib32/libcrt_common.a(lib_a-fwrite.o)
 .text._fwrite_r
                0x000000000002a8e0      0x120 /Users/yeonwoo-kim/HealthHub/nacl_sdk/pepper_49/toolchain/mac_pnacl/bin/../x86_64-nacl/lib32/libcrt_common.a(lib_a-fwrite.o)
                0x000000000002a8e0                _fwrite_r
 .text.fwrite   0x000000000002aa00       0x80 /Users/yeonwoo-kim/HealthHub/nacl_sdk/pepper_49/toolchain/mac_pnacl/bin/../x86_64-nacl/lib32/libcrt_common.a(lib_a-fwrite.o)
                0x000000000002aa00                fwrite
 .text          0x000000000002aa80        0x0 /Users/yeonwoo-kim/HealthHub/nacl_sdk/pepper_49/toolchain/mac_pnacl/bin/../x86_64-nacl/lib32/libcrt_common.a(lib_a-getenv.o)
 .text._findenv
                0x000000000002aa80       0x60 /Users/yeonwoo-kim/HealthHub/nacl_sdk/pepper_49/toolchain/mac_pnacl/bin/../x86_64-nacl/lib32/libcrt_common.a(lib_a-getenv.o)
                0x000000000002aa80                _findenv
 .text.getenv   0x000000000002aae0       0x60 /Users/yeonwoo-kim/HealthHub/nacl_sdk/pepper_49/toolchain/mac_pnacl/bin/../x86_64-nacl/lib32/libcrt_common.a(lib_a-getenv.o)
                0x000000000002aae0                getenv
 .text          0x000000000002ab40        0x0 /Users/yeonwoo-kim/HealthHub/nacl_sdk/pepper_49/toolchain/mac_pnacl/bin/../x86_64-nacl/lib32/libcrt_common.a(lib_a-getenv_r.o)
 .text._findenv_r
                0x000000000002ab40      0x120 /Users/yeonwoo-kim/HealthHub/nacl_sdk/pepper_49/toolchain/mac_pnacl/bin/../x86_64-nacl/lib32/libcrt_common.a(lib_a-getenv_r.o)
                0x000000000002ab40                _findenv_r
 .text._getenv_r
                0x000000000002ac60       0x40 /Users/yeonwoo-kim/HealthHub/nacl_sdk/pepper_49/toolchain/mac_pnacl/bin/../x86_64-nacl/lib32/libcrt_common.a(lib_a-getenv_r.o)
                0x000000000002ac60                _getenv_r
 .text          0x000000000002aca0        0x0 /Users/yeonwoo-kim/HealthHub/nacl_sdk/pepper_49/toolchain/mac_pnacl/bin/../x86_64-nacl/lib32/libcrt_common.a(lib_a-impure.o)
 .text.__newlib_thread_init
                0x000000000002aca0       0x20 /Users/yeonwoo-kim/HealthHub/nacl_sdk/pepper_49/toolchain/mac_pnacl/bin/../x86_64-nacl/lib32/libcrt_common.a(lib_a-impure.o)
                0x000000000002aca0                __newlib_thread_init
 .text.__newlib_thread_exit
                0x000000000002acc0       0x20 /Users/yeonwoo-kim/HealthHub/nacl_sdk/pepper_49/toolchain/mac_pnacl/bin/../x86_64-nacl/lib32/libcrt_common.a(lib_a-impure.o)
                0x000000000002acc0                __newlib_thread_exit
 .text          0x000000000002ace0        0x0 /Users/yeonwoo-kim/HealthHub/nacl_sdk/pepper_49/toolchain/mac_pnacl/bin/../x86_64-nacl/lib32/libcrt_common.a(lib_a-init.o)
 .text.__libc_init_array
                0x000000000002ace0       0xc0 /Users/yeonwoo-kim/HealthHub/nacl_sdk/pepper_49/toolchain/mac_pnacl/bin/../x86_64-nacl/lib32/libcrt_common.a(lib_a-init.o)
                0x000000000002ace0                __libc_init_array
 .text          0x000000000002ada0       0x4d /Users/yeonwoo-kim/HealthHub/nacl_sdk/pepper_49/toolchain/mac_pnacl/bin/../x86_64-nacl/lib32/libcrt_common.a(lib_a-memcpy.o)
                0x000000000002ada0                memcpy
 *fill*         0x000000000002aded       0x13 
 .text          0x000000000002ae00       0x92 /Users/yeonwoo-kim/HealthHub/nacl_sdk/pepper_49/toolchain/mac_pnacl/bin/../x86_64-nacl/lib32/libcrt_common.a(lib_a-memset.o)
                0x000000000002ae00                memset
 *fill*         0x000000000002ae92        0x2 
 .text          0x000000000002ae94        0x0 /Users/yeonwoo-kim/HealthHub/nacl_sdk/pepper_49/toolchain/mac_pnacl/bin/../x86_64-nacl/lib32/libcrt_common.a(lib_a-sleep.o)
 *fill*         0x000000000002ae94        0xc 
 .text.sleep    0x000000000002aea0       0x80 /Users/yeonwoo-kim/HealthHub/nacl_sdk/pepper_49/toolchain/mac_pnacl/bin/../x86_64-nacl/lib32/libcrt_common.a(lib_a-sleep.o)
                0x000000000002aea0                sleep
 .text          0x000000000002af20        0x0 /Users/yeonwoo-kim/HealthHub/nacl_sdk/pepper_49/toolchain/mac_pnacl/bin/../x86_64-nacl/lib32/libcrt_common.a(lib_a-stdio.o)
 .text.__sread  0x000000000002af20       0x80 /Users/yeonwoo-kim/HealthHub/nacl_sdk/pepper_49/toolchain/mac_pnacl/bin/../x86_64-nacl/lib32/libcrt_common.a(lib_a-stdio.o)
                0x000000000002af20                __sread
 .text.__seofread
                0x000000000002afa0       0x20 /Users/yeonwoo-kim/HealthHub/nacl_sdk/pepper_49/toolchain/mac_pnacl/bin/../x86_64-nacl/lib32/libcrt_common.a(lib_a-stdio.o)
                0x000000000002afa0                __seofread
 .text.__swrite
                0x000000000002afc0       0xa0 /Users/yeonwoo-kim/HealthHub/nacl_sdk/pepper_49/toolchain/mac_pnacl/bin/../x86_64-nacl/lib32/libcrt_common.a(lib_a-stdio.o)
                0x000000000002afc0                __swrite
 .text.__sseek  0x000000000002b060       0x80 /Users/yeonwoo-kim/HealthHub/nacl_sdk/pepper_49/toolchain/mac_pnacl/bin/../x86_64-nacl/lib32/libcrt_common.a(lib_a-stdio.o)
                0x000000000002b060                __sseek
 .text.__sclose
                0x000000000002b0e0       0x40 /Users/yeonwoo-kim/HealthHub/nacl_sdk/pepper_49/toolchain/mac_pnacl/bin/../x86_64-nacl/lib32/libcrt_common.a(lib_a-stdio.o)
                0x000000000002b0e0                __sclose
 .text          0x000000000002b120        0x0 /Users/yeonwoo-kim/HealthHub/nacl_sdk/pepper_49/toolchain/mac_pnacl/bin/../x86_64-nacl/lib32/libcrt_common.a(lib_a-strcat.o)
 .text.strcat   0x000000000002b120       0x80 /Users/yeonwoo-kim/HealthHub/nacl_sdk/pepper_49/toolchain/mac_pnacl/bin/../x86_64-nacl/lib32/libcrt_common.a(lib_a-strcat.o)
                0x000000000002b120                strcat
 .text          0x000000000002b1a0        0x0 /Users/yeonwoo-kim/HealthHub/nacl_sdk/pepper_49/toolchain/mac_pnacl/bin/../x86_64-nacl/lib32/libcrt_common.a(lib_a-strcmp.o)
 .text.strcmp   0x000000000002b1a0       0x80 /Users/yeonwoo-kim/HealthHub/nacl_sdk/pepper_49/toolchain/mac_pnacl/bin/../x86_64-nacl/lib32/libcrt_common.a(lib_a-strcmp.o)
                0x000000000002b1a0                strcmp
 .text          0x000000000002b220        0x0 /Users/yeonwoo-kim/HealthHub/nacl_sdk/pepper_49/toolchain/mac_pnacl/bin/../x86_64-nacl/lib32/libcrt_common.a(lib_a-strcpy.o)
 .text.strcpy   0x000000000002b220       0x80 /Users/yeonwoo-kim/HealthHub/nacl_sdk/pepper_49/toolchain/mac_pnacl/bin/../x86_64-nacl/lib32/libcrt_common.a(lib_a-strcpy.o)
                0x000000000002b220                strcpy
 .text          0x000000000002b2a0       0x80 /Users/yeonwoo-kim/HealthHub/nacl_sdk/pepper_49/toolchain/mac_pnacl/bin/../x86_64-nacl/lib32/libcrt_common.a(lib_a-strlen.o)
                0x000000000002b2a0                strlen
 .text          0x000000000002b320        0x0 /Users/yeonwoo-kim/HealthHub/nacl_sdk/pepper_49/toolchain/mac_pnacl/bin/../x86_64-nacl/lib32/libcrt_common.a(lib_a-strncmp.o)
 .text.strncmp  0x000000000002b320       0xc0 /Users/yeonwoo-kim/HealthHub/nacl_sdk/pepper_49/toolchain/mac_pnacl/bin/../x86_64-nacl/lib32/libcrt_common.a(lib_a-strncmp.o)
                0x000000000002b320                strncmp
 .text          0x000000000002b3e0        0x0 /Users/yeonwoo-kim/HealthHub/nacl_sdk/pepper_49/toolchain/mac_pnacl/bin/../x86_64-nacl/lib32/libcrt_common.a(lib_a-vfprintf.o)
 .text.vfprintf
                0x000000000002b3e0       0x60 /Users/yeonwoo-kim/HealthHub/nacl_sdk/pepper_49/toolchain/mac_pnacl/bin/../x86_64-nacl/lib32/libcrt_common.a(lib_a-vfprintf.o)
                0x000000000002b3e0                vfprintf
 .text._vfprintf_r
                0x000000000002b440     0x38a0 /Users/yeonwoo-kim/HealthHub/nacl_sdk/pepper_49/toolchain/mac_pnacl/bin/../x86_64-nacl/lib32/libcrt_common.a(lib_a-vfprintf.o)
                0x000000000002b440                _vfprintf_r
 .text.__sbprintf
                0x000000000002ece0      0x140 /Users/yeonwoo-kim/HealthHub/nacl_sdk/pepper_49/toolchain/mac_pnacl/bin/../x86_64-nacl/lib32/libcrt_common.a(lib_a-vfprintf.o)
 .text          0x000000000002ee20        0x0 /Users/yeonwoo-kim/HealthHub/nacl_sdk/pepper_49/toolchain/mac_pnacl/bin/../x86_64-nacl/lib32/libcrt_common.a(lib_a-vsnprintf.o)
 .text.vsnprintf
                0x000000000002ee20       0xc0 /Users/yeonwoo-kim/HealthHub/nacl_sdk/pepper_49/toolchain/mac_pnacl/bin/../x86_64-nacl/lib32/libcrt_common.a(lib_a-vsnprintf.o)
                0x000000000002ee20                vsnprintf
 .text._vsnprintf_r
                0x000000000002eee0       0xa0 /Users/yeonwoo-kim/HealthHub/nacl_sdk/pepper_49/toolchain/mac_pnacl/bin/../x86_64-nacl/lib32/libcrt_common.a(lib_a-vsnprintf.o)
                0x000000000002eee0                _vsnprintf_r
 .text          0x000000000002ef80        0x0 /Users/yeonwoo-kim/HealthHub/nacl_sdk/pepper_49/toolchain/mac_pnacl/bin/../x86_64-nacl/lib32/libcrt_common.a(lib_a-vsprintf.o)
 .text.vsprintf
                0x000000000002ef80       0xa0 /Users/yeonwoo-kim/HealthHub/nacl_sdk/pepper_49/toolchain/mac_pnacl/bin/../x86_64-nacl/lib32/libcrt_common.a(lib_a-vsprintf.o)
                0x000000000002ef80                vsprintf
 .text._vsprintf_r
                0x000000000002f020       0x80 /Users/yeonwoo-kim/HealthHub/nacl_sdk/pepper_49/toolchain/mac_pnacl/bin/../x86_64-nacl/lib32/libcrt_common.a(lib_a-vsprintf.o)
                0x000000000002f020                _vsprintf_r
 .text          0x000000000002f0a0        0x0 /Users/yeonwoo-kim/HealthHub/nacl_sdk/pepper_49/toolchain/mac_pnacl/bin/../x86_64-nacl/lib32/libcrt_common.a(lib_a-wcrtomb.o)
 .text._wcrtomb_r
                0x000000000002f0a0       0xe0 /Users/yeonwoo-kim/HealthHub/nacl_sdk/pepper_49/toolchain/mac_pnacl/bin/../x86_64-nacl/lib32/libcrt_common.a(lib_a-wcrtomb.o)
                0x000000000002f0a0                _wcrtomb_r
 .text.wcrtomb  0x000000000002f180       0xe0 /Users/yeonwoo-kim/HealthHub/nacl_sdk/pepper_49/toolchain/mac_pnacl/bin/../x86_64-nacl/lib32/libcrt_common.a(lib_a-wcrtomb.o)
                0x000000000002f180                wcrtomb
 .text          0x000000000002f260        0x0 /Users/yeonwoo-kim/HealthHub/nacl_sdk/pepper_49/toolchain/mac_pnacl/bin/../x86_64-nacl/lib32/libcrt_common.a(lib_a-wcsrtombs.o)
 .text._wcsrtombs_r
                0x000000000002f260       0x60 /Users/yeonwoo-kim/HealthHub/nacl_sdk/pepper_49/toolchain/mac_pnacl/bin/../x86_64-nacl/lib32/libcrt_common.a(lib_a-wcsrtombs.o)
                0x000000000002f260                _wcsrtombs_r
 .text.wcsrtombs
                0x000000000002f2c0       0x80 /Users/yeonwoo-kim/HealthHub/nacl_sdk/pepper_49/toolchain/mac_pnacl/bin/../x86_64-nacl/lib32/libcrt_common.a(lib_a-wcsrtombs.o)
                0x000000000002f2c0                wcsrtombs
 .text          0x000000000002f340        0x0 /Users/yeonwoo-kim/HealthHub/nacl_sdk/pepper_49/toolchain/mac_pnacl/bin/../x86_64-nacl/lib32/libcrt_common.a(lib_a-wctomb_r.o)
 .text.__ascii_wctomb
                0x000000000002f340       0x40 /Users/yeonwoo-kim/HealthHub/nacl_sdk/pepper_49/toolchain/mac_pnacl/bin/../x86_64-nacl/lib32/libcrt_common.a(lib_a-wctomb_r.o)
                0x000000000002f340                __ascii_wctomb
 .text._wctomb_r
                0x000000000002f380       0x60 /Users/yeonwoo-kim/HealthHub/nacl_sdk/pepper_49/toolchain/mac_pnacl/bin/../x86_64-nacl/lib32/libcrt_common.a(lib_a-wctomb_r.o)
                0x000000000002f380                _wctomb_r
 .text.__utf8_wctomb
                0x000000000002f3e0      0x120 /Users/yeonwoo-kim/HealthHub/nacl_sdk/pepper_49/toolchain/mac_pnacl/bin/../x86_64-nacl/lib32/libcrt_common.a(lib_a-wctomb_r.o)
                0x000000000002f3e0                __utf8_wctomb
 .text.__sjis_wctomb
                0x000000000002f500       0x80 /Users/yeonwoo-kim/HealthHub/nacl_sdk/pepper_49/toolchain/mac_pnacl/bin/../x86_64-nacl/lib32/libcrt_common.a(lib_a-wctomb_r.o)
                0x000000000002f500                __sjis_wctomb
 .text.__eucjp_wctomb
                0x000000000002f580       0xc0 /Users/yeonwoo-kim/HealthHub/nacl_sdk/pepper_49/toolchain/mac_pnacl/bin/../x86_64-nacl/lib32/libcrt_common.a(lib_a-wctomb_r.o)
                0x000000000002f580                __eucjp_wctomb
 .text.__jis_wctomb
                0x000000000002f640       0xc0 /Users/yeonwoo-kim/HealthHub/nacl_sdk/pepper_49/toolchain/mac_pnacl/bin/../x86_64-nacl/lib32/libcrt_common.a(lib_a-wctomb_r.o)
                0x000000000002f640                __jis_wctomb
 .text          0x000000000002f700        0x0 /Users/yeonwoo-kim/HealthHub/nacl_sdk/pepper_49/toolchain/mac_pnacl/bin/../x86_64-nacl/lib32/libcrt_common.a(lib_a-wsetup.o)
 .text.__swsetup_r
                0x000000000002f700      0x160 /Users/yeonwoo-kim/HealthHub/nacl_sdk/pepper_49/toolchain/mac_pnacl/bin/../x86_64-nacl/lib32/libcrt_common.a(lib_a-wsetup.o)
                0x000000000002f700                __swsetup_r
 .text          0x000000000002f860        0x0 /Users/yeonwoo-kim/HealthHub/nacl_sdk/pepper_49/toolchain/mac_pnacl/bin/../x86_64-nacl/lib32/libcrt_common.a(lib_a-__atexit.o)
 .text.__register_exitproc
                0x000000000002f860      0x140 /Users/yeonwoo-kim/HealthHub/nacl_sdk/pepper_49/toolchain/mac_pnacl/bin/../x86_64-nacl/lib32/libcrt_common.a(lib_a-__atexit.o)
                0x000000000002f860                __register_exitproc
 .text          0x000000000002f9a0        0x0 /Users/yeonwoo-kim/HealthHub/nacl_sdk/pepper_49/toolchain/mac_pnacl/bin/../x86_64-nacl/lib32/libcrt_common.a(lib_a-__call_atexit.o)
 .text.__call_exitprocs
                0x000000000002f9a0      0x160 /Users/yeonwoo-kim/HealthHub/nacl_sdk/pepper_49/toolchain/mac_pnacl/bin/../x86_64-nacl/lib32/libcrt_common.a(lib_a-__call_atexit.o)
                0x000000000002f9a0                __call_exitprocs
 .text          0x000000000002fb00        0x0 /Users/yeonwoo-kim/HealthHub/nacl_sdk/pepper_49/toolchain/mac_pnacl/bin/../x86_64-nacl/lib32/libcrt_common.a(lib_a-dtoa.o)
 .text._dtoa_r  0x000000000002fb00     0x12e0 /Users/yeonwoo-kim/HealthHub/nacl_sdk/pepper_49/toolchain/mac_pnacl/bin/../x86_64-nacl/lib32/libcrt_common.a(lib_a-dtoa.o)
                0x000000000002fb00                _dtoa_r
 .text.quorem   0x0000000000030de0      0x200 /Users/yeonwoo-kim/HealthHub/nacl_sdk/pepper_49/toolchain/mac_pnacl/bin/../x86_64-nacl/lib32/libcrt_common.a(lib_a-dtoa.o)
 .text          0x0000000000030fe0        0x0 /Users/yeonwoo-kim/HealthHub/nacl_sdk/pepper_49/toolchain/mac_pnacl/bin/../x86_64-nacl/lib32/libcrt_common.a(lib_a-envlock.o)
 .text.__env_lock
                0x0000000000030fe0       0x40 /Users/yeonwoo-kim/HealthHub/nacl_sdk/pepper_49/toolchain/mac_pnacl/bin/../x86_64-nacl/lib32/libcrt_common.a(lib_a-envlock.o)
                0x0000000000030fe0                __env_lock
 .text.__env_unlock
                0x0000000000031020       0x40 /Users/yeonwoo-kim/HealthHub/nacl_sdk/pepper_49/toolchain/mac_pnacl/bin/../x86_64-nacl/lib32/libcrt_common.a(lib_a-envlock.o)
                0x0000000000031020                __env_unlock
 .text          0x0000000000031060        0x0 /Users/yeonwoo-kim/HealthHub/nacl_sdk/pepper_49/toolchain/mac_pnacl/bin/../x86_64-nacl/lib32/libcrt_common.a(lib_a-fclose.o)
 .text._fclose_r
                0x0000000000031060      0x1c0 /Users/yeonwoo-kim/HealthHub/nacl_sdk/pepper_49/toolchain/mac_pnacl/bin/../x86_64-nacl/lib32/libcrt_common.a(lib_a-fclose.o)
                0x0000000000031060                _fclose_r
 .text.fclose   0x0000000000031220       0x60 /Users/yeonwoo-kim/HealthHub/nacl_sdk/pepper_49/toolchain/mac_pnacl/bin/../x86_64-nacl/lib32/libcrt_common.a(lib_a-fclose.o)
                0x0000000000031220                fclose
 .text          0x0000000000031280        0x0 /Users/yeonwoo-kim/HealthHub/nacl_sdk/pepper_49/toolchain/mac_pnacl/bin/../x86_64-nacl/lib32/libcrt_common.a(lib_a-fvwrite.o)
 .text.__sfvwrite_r
                0x0000000000031280      0x5a0 /Users/yeonwoo-kim/HealthHub/nacl_sdk/pepper_49/toolchain/mac_pnacl/bin/../x86_64-nacl/lib32/libcrt_common.a(lib_a-fvwrite.o)
                0x0000000000031280                __sfvwrite_r
 .text          0x0000000000031820        0x0 /Users/yeonwoo-kim/HealthHub/nacl_sdk/pepper_49/toolchain/mac_pnacl/bin/../x86_64-nacl/lib32/libcrt_common.a(lib_a-locale.o)
 .text._setlocale_r
                0x0000000000031820      0x760 /Users/yeonwoo-kim/HealthHub/nacl_sdk/pepper_49/toolchain/mac_pnacl/bin/../x86_64-nacl/lib32/libcrt_common.a(lib_a-locale.o)
                0x0000000000031820                _setlocale_r
 .text.currentlocale
                0x0000000000031f80      0x220 /Users/yeonwoo-kim/HealthHub/nacl_sdk/pepper_49/toolchain/mac_pnacl/bin/../x86_64-nacl/lib32/libcrt_common.a(lib_a-locale.o)
 .text.loadlocale
                0x00000000000321a0      0xb20 /Users/yeonwoo-kim/HealthHub/nacl_sdk/pepper_49/toolchain/mac_pnacl/bin/../x86_64-nacl/lib32/libcrt_common.a(lib_a-locale.o)
 .text.__locale_charset
                0x0000000000032cc0       0x20 /Users/yeonwoo-kim/HealthHub/nacl_sdk/pepper_49/toolchain/mac_pnacl/bin/../x86_64-nacl/lib32/libcrt_common.a(lib_a-locale.o)
                0x0000000000032cc0                __locale_charset
 .text.__locale_mb_cur_max
                0x0000000000032ce0       0x20 /Users/yeonwoo-kim/HealthHub/nacl_sdk/pepper_49/toolchain/mac_pnacl/bin/../x86_64-nacl/lib32/libcrt_common.a(lib_a-locale.o)
                0x0000000000032ce0                __locale_mb_cur_max
 .text.__locale_msgcharset
                0x0000000000032d00       0x20 /Users/yeonwoo-kim/HealthHub/nacl_sdk/pepper_49/toolchain/mac_pnacl/bin/../x86_64-nacl/lib32/libcrt_common.a(lib_a-locale.o)
                0x0000000000032d00                __locale_msgcharset
 .text.__locale_cjk_lang
                0x0000000000032d20       0x20 /Users/yeonwoo-kim/HealthHub/nacl_sdk/pepper_49/toolchain/mac_pnacl/bin/../x86_64-nacl/lib32/libcrt_common.a(lib_a-locale.o)
                0x0000000000032d20                __locale_cjk_lang
 .text._localeconv_r
                0x0000000000032d40       0x20 /Users/yeonwoo-kim/HealthHub/nacl_sdk/pepper_49/toolchain/mac_pnacl/bin/../x86_64-nacl/lib32/libcrt_common.a(lib_a-locale.o)
                0x0000000000032d40                _localeconv_r
 .text.setlocale
                0x0000000000032d60       0x60 /Users/yeonwoo-kim/HealthHub/nacl_sdk/pepper_49/toolchain/mac_pnacl/bin/../x86_64-nacl/lib32/libcrt_common.a(lib_a-locale.o)
                0x0000000000032d60                setlocale
 .text.localeconv
                0x0000000000032dc0       0x20 /Users/yeonwoo-kim/HealthHub/nacl_sdk/pepper_49/toolchain/mac_pnacl/bin/../x86_64-nacl/lib32/libcrt_common.a(lib_a-locale.o)
                0x0000000000032dc0                localeconv
 .text          0x0000000000032de0        0x0 /Users/yeonwoo-kim/HealthHub/nacl_sdk/pepper_49/toolchain/mac_pnacl/bin/../x86_64-nacl/lib32/libcrt_common.a(lib_a-makebuf.o)
 .text.__smakebuf_r
                0x0000000000032de0      0x140 /Users/yeonwoo-kim/HealthHub/nacl_sdk/pepper_49/toolchain/mac_pnacl/bin/../x86_64-nacl/lib32/libcrt_common.a(lib_a-makebuf.o)
                0x0000000000032de0                __smakebuf_r
 .text          0x0000000000032f20        0x0 /Users/yeonwoo-kim/HealthHub/nacl_sdk/pepper_49/toolchain/mac_pnacl/bin/../x86_64-nacl/lib32/libcrt_common.a(lib_a-mbtowc_r.o)
 .text.__ascii_mbtowc
                0x0000000000032f20       0x60 /Users/yeonwoo-kim/HealthHub/nacl_sdk/pepper_49/toolchain/mac_pnacl/bin/../x86_64-nacl/lib32/libcrt_common.a(lib_a-mbtowc_r.o)
                0x0000000000032f20                __ascii_mbtowc
 .text._mbtowc_r
                0x0000000000032f80       0x80 /Users/yeonwoo-kim/HealthHub/nacl_sdk/pepper_49/toolchain/mac_pnacl/bin/../x86_64-nacl/lib32/libcrt_common.a(lib_a-mbtowc_r.o)
                0x0000000000032f80                _mbtowc_r
 .text.__utf8_mbtowc
                0x0000000000033000      0x460 /Users/yeonwoo-kim/HealthHub/nacl_sdk/pepper_49/toolchain/mac_pnacl/bin/../x86_64-nacl/lib32/libcrt_common.a(lib_a-mbtowc_r.o)
                0x0000000000033000                __utf8_mbtowc
 .text.__sjis_mbtowc
                0x0000000000033460      0x100 /Users/yeonwoo-kim/HealthHub/nacl_sdk/pepper_49/toolchain/mac_pnacl/bin/../x86_64-nacl/lib32/libcrt_common.a(lib_a-mbtowc_r.o)
                0x0000000000033460                __sjis_mbtowc
 .text.__eucjp_mbtowc
                0x0000000000033560      0x160 /Users/yeonwoo-kim/HealthHub/nacl_sdk/pepper_49/toolchain/mac_pnacl/bin/../x86_64-nacl/lib32/libcrt_common.a(lib_a-mbtowc_r.o)
                0x0000000000033560                __eucjp_mbtowc
 .text.__jis_mbtowc
                0x00000000000336c0      0x220 /Users/yeonwoo-kim/HealthHub/nacl_sdk/pepper_49/toolchain/mac_pnacl/bin/../x86_64-nacl/lib32/libcrt_common.a(lib_a-mbtowc_r.o)
                0x00000000000336c0                __jis_mbtowc
 .text          0x00000000000338e0       0x9a /Users/yeonwoo-kim/HealthHub/nacl_sdk/pepper_49/toolchain/mac_pnacl/bin/../x86_64-nacl/lib32/libcrt_common.a(lib_a-memchr.o)
                0x00000000000338e0                memchr
 *fill*         0x000000000003397a        0x6 
 .text          0x0000000000033980       0x9e /Users/yeonwoo-kim/HealthHub/nacl_sdk/pepper_49/toolchain/mac_pnacl/bin/../x86_64-nacl/lib32/libcrt_common.a(lib_a-memmove.o)
                0x0000000000033980                memmove
 *fill*         0x0000000000033a1e        0x2 
 .text          0x0000000000033a20        0x0 /Users/yeonwoo-kim/HealthHub/nacl_sdk/pepper_49/toolchain/mac_pnacl/bin/../x86_64-nacl/lib32/libcrt_common.a(lib_a-mprec.o)
 .text._Balloc  0x0000000000033a20       0xe0 /Users/yeonwoo-kim/HealthHub/nacl_sdk/pepper_49/toolchain/mac_pnacl/bin/../x86_64-nacl/lib32/libcrt_common.a(lib_a-mprec.o)
                0x0000000000033a20                _Balloc
 .text._Bfree   0x0000000000033b00       0x40 /Users/yeonwoo-kim/HealthHub/nacl_sdk/pepper_49/toolchain/mac_pnacl/bin/../x86_64-nacl/lib32/libcrt_common.a(lib_a-mprec.o)
                0x0000000000033b00                _Bfree
 .text.__multadd
                0x0000000000033b40      0x1a0 /Users/yeonwoo-kim/HealthHub/nacl_sdk/pepper_49/toolchain/mac_pnacl/bin/../x86_64-nacl/lib32/libcrt_common.a(lib_a-mprec.o)
                0x0000000000033b40                __multadd
 .text.__s2b    0x0000000000033ce0      0x1c0 /Users/yeonwoo-kim/HealthHub/nacl_sdk/pepper_49/toolchain/mac_pnacl/bin/../x86_64-nacl/lib32/libcrt_common.a(lib_a-mprec.o)
                0x0000000000033ce0                __s2b
 .text.__hi0bits
                0x0000000000033ea0       0xa0 /Users/yeonwoo-kim/HealthHub/nacl_sdk/pepper_49/toolchain/mac_pnacl/bin/../x86_64-nacl/lib32/libcrt_common.a(lib_a-mprec.o)
                0x0000000000033ea0                __hi0bits
 .text.__lo0bits
                0x0000000000033f40       0xc0 /Users/yeonwoo-kim/HealthHub/nacl_sdk/pepper_49/toolchain/mac_pnacl/bin/../x86_64-nacl/lib32/libcrt_common.a(lib_a-mprec.o)
                0x0000000000033f40                __lo0bits
 .text.__i2b    0x0000000000034000       0xc0 /Users/yeonwoo-kim/HealthHub/nacl_sdk/pepper_49/toolchain/mac_pnacl/bin/../x86_64-nacl/lib32/libcrt_common.a(lib_a-mprec.o)
                0x0000000000034000                __i2b
 .text.__multiply
                0x00000000000340c0      0x340 /Users/yeonwoo-kim/HealthHub/nacl_sdk/pepper_49/toolchain/mac_pnacl/bin/../x86_64-nacl/lib32/libcrt_common.a(lib_a-mprec.o)
                0x00000000000340c0                __multiply
 .text.__pow5mult
                0x0000000000034400      0x180 /Users/yeonwoo-kim/HealthHub/nacl_sdk/pepper_49/toolchain/mac_pnacl/bin/../x86_64-nacl/lib32/libcrt_common.a(lib_a-mprec.o)
                0x0000000000034400                __pow5mult
 .text.__lshift
                0x0000000000034580      0x2e0 /Users/yeonwoo-kim/HealthHub/nacl_sdk/pepper_49/toolchain/mac_pnacl/bin/../x86_64-nacl/lib32/libcrt_common.a(lib_a-mprec.o)
                0x0000000000034580                __lshift
 .text.__mcmp   0x0000000000034860       0x60 /Users/yeonwoo-kim/HealthHub/nacl_sdk/pepper_49/toolchain/mac_pnacl/bin/../x86_64-nacl/lib32/libcrt_common.a(lib_a-mprec.o)
                0x0000000000034860                __mcmp
 .text.__mdiff  0x00000000000348c0      0x2e0 /Users/yeonwoo-kim/HealthHub/nacl_sdk/pepper_49/toolchain/mac_pnacl/bin/../x86_64-nacl/lib32/libcrt_common.a(lib_a-mprec.o)
                0x00000000000348c0                __mdiff
 .text.__ulp    0x0000000000034ba0       0xa0 /Users/yeonwoo-kim/HealthHub/nacl_sdk/pepper_49/toolchain/mac_pnacl/bin/../x86_64-nacl/lib32/libcrt_common.a(lib_a-mprec.o)
                0x0000000000034ba0                __ulp
 .text.__b2d    0x0000000000034c40      0x180 /Users/yeonwoo-kim/HealthHub/nacl_sdk/pepper_49/toolchain/mac_pnacl/bin/../x86_64-nacl/lib32/libcrt_common.a(lib_a-mprec.o)
                0x0000000000034c40                __b2d
 .text.__d2b    0x0000000000034dc0      0x380 /Users/yeonwoo-kim/HealthHub/nacl_sdk/pepper_49/toolchain/mac_pnacl/bin/../x86_64-nacl/lib32/libcrt_common.a(lib_a-mprec.o)
                0x0000000000034dc0                __d2b
 .text.__ratio  0x0000000000035140       0xe0 /Users/yeonwoo-kim/HealthHub/nacl_sdk/pepper_49/toolchain/mac_pnacl/bin/../x86_64-nacl/lib32/libcrt_common.a(lib_a-mprec.o)
                0x0000000000035140                __ratio
 .text._mprec_log10
                0x0000000000035220       0x60 /Users/yeonwoo-kim/HealthHub/nacl_sdk/pepper_49/toolchain/mac_pnacl/bin/../x86_64-nacl/lib32/libcrt_common.a(lib_a-mprec.o)
                0x0000000000035220                _mprec_log10
 .text.__copybits
                0x0000000000035280      0x180 /Users/yeonwoo-kim/HealthHub/nacl_sdk/pepper_49/toolchain/mac_pnacl/bin/../x86_64-nacl/lib32/libcrt_common.a(lib_a-mprec.o)
                0x0000000000035280                __copybits
 .text.__any_on
                0x0000000000035400       0x80 /Users/yeonwoo-kim/HealthHub/nacl_sdk/pepper_49/toolchain/mac_pnacl/bin/../x86_64-nacl/lib32/libcrt_common.a(lib_a-mprec.o)
                0x0000000000035400                __any_on
 .text          0x0000000000035480        0x0 /Users/yeonwoo-kim/HealthHub/nacl_sdk/pepper_49/toolchain/mac_pnacl/bin/../x86_64-nacl/lib32/libcrt_common.a(lib_a-s_fpclassify.o)
 .text.__fpclassifyd
                0x0000000000035480       0x80 /Users/yeonwoo-kim/HealthHub/nacl_sdk/pepper_49/toolchain/mac_pnacl/bin/../x86_64-nacl/lib32/libcrt_common.a(lib_a-s_fpclassify.o)
                0x0000000000035480                __fpclassifyd
 .text          0x0000000000035500        0x0 /Users/yeonwoo-kim/HealthHub/nacl_sdk/pepper_49/toolchain/mac_pnacl/bin/../x86_64-nacl/lib32/libcrt_common.a(lib_a-s_frexp.o)
 .text.frexp    0x0000000000035500       0xc0 /Users/yeonwoo-kim/HealthHub/nacl_sdk/pepper_49/toolchain/mac_pnacl/bin/../x86_64-nacl/lib32/libcrt_common.a(lib_a-s_frexp.o)
                0x0000000000035500                frexp
 .text          0x00000000000355c0        0x0 /Users/yeonwoo-kim/HealthHub/nacl_sdk/pepper_49/toolchain/mac_pnacl/bin/../x86_64-nacl/lib32/libcrt_common.a(lib_a-strcasecmp.o)
 .text.strcasecmp
                0x00000000000355c0       0x80 /Users/yeonwoo-kim/HealthHub/nacl_sdk/pepper_49/toolchain/mac_pnacl/bin/../x86_64-nacl/lib32/libcrt_common.a(lib_a-strcasecmp.o)
                0x00000000000355c0                strcasecmp
 .text          0x0000000000035640      0x116 /Users/yeonwoo-kim/HealthHub/nacl_sdk/pepper_49/toolchain/mac_pnacl/bin/../x86_64-nacl/lib32/libcrt_common.a(lib_a-strchr.o)
                0x0000000000035640                strchr
 *fill*         0x0000000000035756        0x2 
 .text          0x0000000000035758        0x0 /Users/yeonwoo-kim/HealthHub/nacl_sdk/pepper_49/toolchain/mac_pnacl/bin/../x86_64-nacl/lib32/libcrt_common.a(lib_a-strlcpy.o)
 *fill*         0x0000000000035758        0x8 
 .text.strlcpy  0x0000000000035760       0x80 /Users/yeonwoo-kim/HealthHub/nacl_sdk/pepper_49/toolchain/mac_pnacl/bin/../x86_64-nacl/lib32/libcrt_common.a(lib_a-strlcpy.o)
                0x0000000000035760                strlcpy
 .text          0x00000000000357e0        0x0 /Users/yeonwoo-kim/HealthHub/nacl_sdk/pepper_49/toolchain/mac_pnacl/bin/../x86_64-nacl/lib32/libcrt_common.a(lib_a-strncasecmp.o)
 .text.strncasecmp
                0x00000000000357e0       0x80 /Users/yeonwoo-kim/HealthHub/nacl_sdk/pepper_49/toolchain/mac_pnacl/bin/../x86_64-nacl/lib32/libcrt_common.a(lib_a-strncasecmp.o)
                0x00000000000357e0                strncasecmp
 .text          0x0000000000035860        0x0 /Users/yeonwoo-kim/HealthHub/nacl_sdk/pepper_49/toolchain/mac_pnacl/bin/../x86_64-nacl/lib32/libcrt_common.a(lib_a-strncpy.o)
 .text.strncpy  0x0000000000035860      0x120 /Users/yeonwoo-kim/HealthHub/nacl_sdk/pepper_49/toolchain/mac_pnacl/bin/../x86_64-nacl/lib32/libcrt_common.a(lib_a-strncpy.o)
                0x0000000000035860                strncpy
 .text          0x0000000000035980        0x0 /Users/yeonwoo-kim/HealthHub/nacl_sdk/pepper_49/toolchain/mac_pnacl/bin/../x86_64-nacl/lib32/libcrt_common.a(lib_a-strtol.o)
 .text._strtol_r
                0x0000000000035980      0x1a0 /Users/yeonwoo-kim/HealthHub/nacl_sdk/pepper_49/toolchain/mac_pnacl/bin/../x86_64-nacl/lib32/libcrt_common.a(lib_a-strtol.o)
                0x0000000000035980                _strtol_r
 .text.strtol   0x0000000000035b20       0x60 /Users/yeonwoo-kim/HealthHub/nacl_sdk/pepper_49/toolchain/mac_pnacl/bin/../x86_64-nacl/lib32/libcrt_common.a(lib_a-strtol.o)
                0x0000000000035b20                strtol
 .text          0x0000000000035b80        0x0 /Users/yeonwoo-kim/HealthHub/nacl_sdk/pepper_49/toolchain/mac_pnacl/bin/../x86_64-nacl/lib32/libcrt_common.a(lib_a-svfprintf.o)
 .text._svfprintf_r
                0x0000000000035b80     0x35a0 /Users/yeonwoo-kim/HealthHub/nacl_sdk/pepper_49/toolchain/mac_pnacl/bin/../x86_64-nacl/lib32/libcrt_common.a(lib_a-svfprintf.o)
                0x0000000000035b80                _svfprintf_r
 .text          0x0000000000039120        0x0 /Users/yeonwoo-kim/HealthHub/nacl_sdk/pepper_49/toolchain/mac_pnacl/bin/../x86_64-nacl/lib32/libcrt_common.a(lib_a-vfiprintf.o)
 .text.__sprint_r
                0x0000000000039120       0xe0 /Users/yeonwoo-kim/HealthHub/nacl_sdk/pepper_49/toolchain/mac_pnacl/bin/../x86_64-nacl/lib32/libcrt_common.a(lib_a-vfiprintf.o)
                0x0000000000039120                __sprint_r
 .text.vfiprintf
                0x0000000000039200       0x60 /Users/yeonwoo-kim/HealthHub/nacl_sdk/pepper_49/toolchain/mac_pnacl/bin/../x86_64-nacl/lib32/libcrt_common.a(lib_a-vfiprintf.o)
                0x0000000000039200                vfiprintf
 .text._vfiprintf_r
                0x0000000000039260     0x25c0 /Users/yeonwoo-kim/HealthHub/nacl_sdk/pepper_49/toolchain/mac_pnacl/bin/../x86_64-nacl/lib32/libcrt_common.a(lib_a-vfiprintf.o)
                0x0000000000039260                _vfiprintf_r
 .text.__sbprintf
                0x000000000003b820      0x140 /Users/yeonwoo-kim/HealthHub/nacl_sdk/pepper_49/toolchain/mac_pnacl/bin/../x86_64-nacl/lib32/libcrt_common.a(lib_a-vfiprintf.o)
 .text          0x000000000003b960        0x0 /Users/yeonwoo-kim/HealthHub/nacl_sdk/pepper_49/toolchain/mac_pnacl/bin/../x86_64-nacl/lib32/libcrt_common.a(lib_a-wcsnrtombs.o)
 .text._wcsnrtombs_r
                0x000000000003b960      0x200 /Users/yeonwoo-kim/HealthHub/nacl_sdk/pepper_49/toolchain/mac_pnacl/bin/../x86_64-nacl/lib32/libcrt_common.a(lib_a-wcsnrtombs.o)
                0x000000000003b960                _wcsnrtombs_r
 .text.wcsnrtombs
                0x000000000003bb60       0x80 /Users/yeonwoo-kim/HealthHub/nacl_sdk/pepper_49/toolchain/mac_pnacl/bin/../x86_64-nacl/lib32/libcrt_common.a(lib_a-wcsnrtombs.o)
                0x000000000003bb60                wcsnrtombs
 .text          0x000000000003bbe0        0x0 /Users/yeonwoo-kim/HealthHub/nacl_sdk/pepper_49/toolchain/mac_pnacl/bin/../x86_64-nacl/lib32/libcrt_common.a(lib_a-ctype_.o)
 .text.__set_ctype
                0x000000000003bbe0       0x20 /Users/yeonwoo-kim/HealthHub/nacl_sdk/pepper_49/toolchain/mac_pnacl/bin/../x86_64-nacl/lib32/libcrt_common.a(lib_a-ctype_.o)
                0x000000000003bbe0                __set_ctype
 .text          0x000000000003bc00        0x0 /Users/yeonwoo-kim/HealthHub/nacl_sdk/pepper_49/toolchain/mac_pnacl/bin/../x86_64-nacl/lib32/libcrt_common.a(lib_a-fputwc.o)
 .text._fputwc_r
                0x000000000003bc00      0x180 /Users/yeonwoo-kim/HealthHub/nacl_sdk/pepper_49/toolchain/mac_pnacl/bin/../x86_64-nacl/lib32/libcrt_common.a(lib_a-fputwc.o)
                0x000000000003bc00                _fputwc_r
 .text.fputwc   0x000000000003bd80       0x80 /Users/yeonwoo-kim/HealthHub/nacl_sdk/pepper_49/toolchain/mac_pnacl/bin/../x86_64-nacl/lib32/libcrt_common.a(lib_a-fputwc.o)
                0x000000000003bd80                fputwc
 .text          0x000000000003be00        0x0 /Users/yeonwoo-kim/HealthHub/nacl_sdk/pepper_49/toolchain/mac_pnacl/bin/../x86_64-nacl/lib32/libcrt_common.a(lib_a-svfiprintf.o)
 .text.__ssprint_r
                0x000000000003be00      0x240 /Users/yeonwoo-kim/HealthHub/nacl_sdk/pepper_49/toolchain/mac_pnacl/bin/../x86_64-nacl/lib32/libcrt_common.a(lib_a-svfiprintf.o)
                0x000000000003be00                __ssprint_r
 .text._svfiprintf_r
                0x000000000003c040     0x1a80 /Users/yeonwoo-kim/HealthHub/nacl_sdk/pepper_49/toolchain/mac_pnacl/bin/../x86_64-nacl/lib32/libcrt_common.a(lib_a-svfiprintf.o)
                0x000000000003c040                _svfiprintf_r
 .text          0x000000000003dac0        0x0 /Users/yeonwoo-kim/HealthHub/nacl_sdk/pepper_49/toolchain/mac_pnacl/bin/../x86_64-nacl/lib32/libcrt_common.a(lib_a-wbuf.o)
 .text.__swbuf_r
                0x000000000003dac0      0x120 /Users/yeonwoo-kim/HealthHub/nacl_sdk/pepper_49/toolchain/mac_pnacl/bin/../x86_64-nacl/lib32/libcrt_common.a(lib_a-wbuf.o)
                0x000000000003dac0                __swbuf_r
 .text.__swbuf  0x000000000003dbe0       0x60 /Users/yeonwoo-kim/HealthHub/nacl_sdk/pepper_49/toolchain/mac_pnacl/bin/../x86_64-nacl/lib32/libcrt_common.a(lib_a-wbuf.o)
                0x000000000003dbe0                __swbuf
 .text          0x000000000003dc40       0x60 /Users/yeonwoo-kim/HealthHub/nacl_sdk/pepper_49/toolchain/mac_pnacl/bin/../x86_64-nacl/lib32/libnacl.a(close.o)
                0x000000000003dc40                close
 .text          0x000000000003dca0       0x60 /Users/yeonwoo-kim/HealthHub/nacl_sdk/pepper_49/toolchain/mac_pnacl/bin/../x86_64-nacl/lib32/libnacl.a(fstat.o)
                0x000000000003dca0                fstat
 .text          0x000000000003dd00       0x80 /Users/yeonwoo-kim/HealthHub/nacl_sdk/pepper_49/toolchain/mac_pnacl/bin/../x86_64-nacl/lib32/libnacl.a(isatty.o)
                0x000000000003dd00                isatty
 .text          0x000000000003dd80       0xa0 /Users/yeonwoo-kim/HealthHub/nacl_sdk/pepper_49/toolchain/mac_pnacl/bin/../x86_64-nacl/lib32/libnacl.a(lseek.o)
                0x000000000003dd80                lseek
 .text          0x000000000003de20       0x60 /Users/yeonwoo-kim/HealthHub/nacl_sdk/pepper_49/toolchain/mac_pnacl/bin/../x86_64-nacl/lib32/libnacl.a(nanosleep.o)
                0x000000000003de20                nanosleep
 .text          0x000000000003de80       0x80 /Users/yeonwoo-kim/HealthHub/nacl_sdk/pepper_49/toolchain/mac_pnacl/bin/../x86_64-nacl/lib32/libnacl.a(nacl_irt_fdio.o)
                0x000000000003de80                __libnacl_irt_dev_fdio_init
 .text          0x000000000003df00       0x80 /Users/yeonwoo-kim/HealthHub/nacl_sdk/pepper_49/toolchain/mac_pnacl/bin/../x86_64-nacl/lib32/libnacl.a(read.o)
                0x000000000003df00                read
 .text          0x000000000003df80       0x80 /Users/yeonwoo-kim/HealthHub/nacl_sdk/pepper_49/toolchain/mac_pnacl/bin/../lib/clang/3.7.0/lib/i686-nacl/libgcc.a(udivdi3.o)
                0x000000000003df80                __udivdi3
 .text          0x000000000003e000      0x3e0 /Users/yeonwoo-kim/HealthHub/nacl_sdk/pepper_49/toolchain/mac_pnacl/bin/../lib/clang/3.7.0/lib/i686-nacl/libgcc.a(udivmoddi4.o)
                0x000000000003e000                __udivmoddi4
 .text          0x000000000003e3e0       0x80 /Users/yeonwoo-kim/HealthHub/nacl_sdk/pepper_49/toolchain/mac_pnacl/bin/../lib/clang/3.7.0/lib/i686-nacl/libgcc.a(umoddi3.o)
                0x000000000003e3e0                __umoddi3
 .text          0x000000000003e460     0x2360 /Users/yeonwoo-kim/HealthHub/nacl_sdk/pepper_49/toolchain/mac_pnacl/bin/../lib/clang/3.7.0/lib/i686-nacl/libgcc_eh.a(unwind-dw2-fde-glibc.o)
                0x000000000003e460                __register_frame_info_bases
                0x000000000003e4e0                __register_frame_info
                0x000000000003e560                __register_frame_info_table_bases
                0x000000000003e5c0                __register_frame_info_table
                0x000000000003f460                __register_frame_table
                0x000000000003f4e0                __register_frame
                0x0000000000040340                _Unwind_Find_FDE
                0x0000000000040580                __deregister_frame_info_bases
                0x0000000000040740                __deregister_frame_info
                0x0000000000040760                __deregister_frame
 .text          0x00000000000407c0        0x0 /Users/yeonwoo-kim/HealthHub/nacl_sdk/pepper_49/toolchain/mac_pnacl/bin/../lib/clang/3.7.0/lib/i686-nacl/crtend.o
 .text          0x00000000000407c0        0x0 /Users/yeonwoo-kim/HealthHub/nacl_sdk/pepper_49/toolchain/mac_pnacl/bin/../x86_64-nacl/lib32/crtn.o
 *(.gnu.warning)

.fini
 *(SORT(.fini))
                0x00000000000407c0                PROVIDE (__etext, .)
                0x00000000000407c0                PROVIDE (_etext, .)
                0x00000000000407c0                PROVIDE (etext, .)
                0x00000000100200f4                . = (0x10020000 + SIZEOF_HEADERS)

.interp
 *(.interp)

.note.NaCl.ABI.x86-32
                0x00000000100200f4       0x1c
 .note.NaCl.ABI.x86-32
                0x00000000100200f4       0x1c /Users/yeonwoo-kim/HealthHub/nacl_sdk/pepper_49/toolchain/mac_pnacl/bin/../lib/clang/3.7.0/lib/i686-nacl/crtbeginT.o

.note.gnu.build-id
                0x0000000010020110       0x24
 *(.note.gnu.build-id)
 .note.gnu.build-id
                0x0000000010020110       0x24 /Users/yeonwoo-kim/HealthHub/nacl_sdk/pepper_49/toolchain/mac_pnacl/bin/../x86_64-nacl/lib32/crti.o

.hash
 *(.hash)

.gnu.hash
 *(.gnu.hash)

.dynsym
 *(.dynsym)

.dynstr
 *(.dynstr)

.gnu.version
 *(.gnu.version)

.gnu.version_d
 *(.gnu.version_d)

.gnu.version_r
 *(.gnu.version_r)

.rel.dyn        0x0000000010020134        0x0
 *(.rel.init)
 *(.rel.text .rel.text.* .rel.gnu.linkonce.t.*)
 .rel.text      0x0000000000000000        0x0 /Users/yeonwoo-kim/HealthHub/nacl_sdk/pepper_49/toolchain/mac_pnacl/bin/../lib/clang/3.7.0/lib/i686-nacl/crtbeginT.o
 .rel.text.atexit
                0x0000000000000000        0x0 /Users/yeonwoo-kim/HealthHub/nacl_sdk/pepper_49/toolchain/mac_pnacl/bin/../lib/clang/3.7.0/lib/i686-nacl/crtbeginT.o
 .rel.text.exit
                0x0000000000000000        0x0 /Users/yeonwoo-kim/HealthHub/nacl_sdk/pepper_49/toolchain/mac_pnacl/bin/../lib/clang/3.7.0/lib/i686-nacl/crtbeginT.o
 .rel.text._fflush_r
                0x0000000000000000        0x0 /Users/yeonwoo-kim/HealthHub/nacl_sdk/pepper_49/toolchain/mac_pnacl/bin/../lib/clang/3.7.0/lib/i686-nacl/crtbeginT.o
 .rel.text.fflush
                0x0000000000000000        0x0 /Users/yeonwoo-kim/HealthHub/nacl_sdk/pepper_49/toolchain/mac_pnacl/bin/../lib/clang/3.7.0/lib/i686-nacl/crtbeginT.o
 .rel.text.__sfmoreglue
                0x0000000000000000        0x0 /Users/yeonwoo-kim/HealthHub/nacl_sdk/pepper_49/toolchain/mac_pnacl/bin/../lib/clang/3.7.0/lib/i686-nacl/crtbeginT.o
 .rel.text.__sfp
                0x0000000000000000        0x0 /Users/yeonwoo-kim/HealthHub/nacl_sdk/pepper_49/toolchain/mac_pnacl/bin/../lib/clang/3.7.0/lib/i686-nacl/crtbeginT.o
 .rel.text.__sinit
                0x0000000000000000        0x0 /Users/yeonwoo-kim/HealthHub/nacl_sdk/pepper_49/toolchain/mac_pnacl/bin/../lib/clang/3.7.0/lib/i686-nacl/crtbeginT.o
 .rel.text._cleanup_r
                0x0000000000000000        0x0 /Users/yeonwoo-kim/HealthHub/nacl_sdk/pepper_49/toolchain/mac_pnacl/bin/../lib/clang/3.7.0/lib/i686-nacl/crtbeginT.o
 .rel.text._cleanup
                0x0000000000000000        0x0 /Users/yeonwoo-kim/HealthHub/nacl_sdk/pepper_49/toolchain/mac_pnacl/bin/../lib/clang/3.7.0/lib/i686-nacl/crtbeginT.o
 .rel.text.__fp_lock_all
                0x0000000000000000        0x0 /Users/yeonwoo-kim/HealthHub/nacl_sdk/pepper_49/toolchain/mac_pnacl/bin/../lib/clang/3.7.0/lib/i686-nacl/crtbeginT.o
 .rel.text.__fp_unlock_all
                0x0000000000000000        0x0 /Users/yeonwoo-kim/HealthHub/nacl_sdk/pepper_49/toolchain/mac_pnacl/bin/../lib/clang/3.7.0/lib/i686-nacl/crtbeginT.o
 .rel.text.__libc_fini_array
                0x0000000000000000        0x0 /Users/yeonwoo-kim/HealthHub/nacl_sdk/pepper_49/toolchain/mac_pnacl/bin/../lib/clang/3.7.0/lib/i686-nacl/crtbeginT.o
 .rel.text._fprintf_r
                0x0000000000000000        0x0 /Users/yeonwoo-kim/HealthHub/nacl_sdk/pepper_49/toolchain/mac_pnacl/bin/../lib/clang/3.7.0/lib/i686-nacl/crtbeginT.o
 .rel.text.fprintf
                0x0000000000000000        0x0 /Users/yeonwoo-kim/HealthHub/nacl_sdk/pepper_49/toolchain/mac_pnacl/bin/../lib/clang/3.7.0/lib/i686-nacl/crtbeginT.o
 .rel.text._fwrite_r
                0x0000000000000000        0x0 /Users/yeonwoo-kim/HealthHub/nacl_sdk/pepper_49/toolchain/mac_pnacl/bin/../lib/clang/3.7.0/lib/i686-nacl/crtbeginT.o
 .rel.text._findenv
                0x0000000000000000        0x0 /Users/yeonwoo-kim/HealthHub/nacl_sdk/pepper_49/toolchain/mac_pnacl/bin/../lib/clang/3.7.0/lib/i686-nacl/crtbeginT.o
 .rel.text.getenv
                0x0000000000000000        0x0 /Users/yeonwoo-kim/HealthHub/nacl_sdk/pepper_49/toolchain/mac_pnacl/bin/../lib/clang/3.7.0/lib/i686-nacl/crtbeginT.o
 .rel.text._findenv_r
                0x0000000000000000        0x0 /Users/yeonwoo-kim/HealthHub/nacl_sdk/pepper_49/toolchain/mac_pnacl/bin/../lib/clang/3.7.0/lib/i686-nacl/crtbeginT.o
 .rel.text.__libc_init_array
                0x0000000000000000        0x0 /Users/yeonwoo-kim/HealthHub/nacl_sdk/pepper_49/toolchain/mac_pnacl/bin/../lib/clang/3.7.0/lib/i686-nacl/crtbeginT.o
 .rel.text.sleep
                0x0000000000000000        0x0 /Users/yeonwoo-kim/HealthHub/nacl_sdk/pepper_49/toolchain/mac_pnacl/bin/../lib/clang/3.7.0/lib/i686-nacl/crtbeginT.o
 .rel.text.__sread
                0x0000000000000000        0x0 /Users/yeonwoo-kim/HealthHub/nacl_sdk/pepper_49/toolchain/mac_pnacl/bin/../lib/clang/3.7.0/lib/i686-nacl/crtbeginT.o
 .rel.text.__swrite
                0x0000000000000000        0x0 /Users/yeonwoo-kim/HealthHub/nacl_sdk/pepper_49/toolchain/mac_pnacl/bin/../lib/clang/3.7.0/lib/i686-nacl/crtbeginT.o
 .rel.text.__sseek
                0x0000000000000000        0x0 /Users/yeonwoo-kim/HealthHub/nacl_sdk/pepper_49/toolchain/mac_pnacl/bin/../lib/clang/3.7.0/lib/i686-nacl/crtbeginT.o
 .rel.text.__sclose
                0x0000000000000000        0x0 /Users/yeonwoo-kim/HealthHub/nacl_sdk/pepper_49/toolchain/mac_pnacl/bin/../lib/clang/3.7.0/lib/i686-nacl/crtbeginT.o
 .rel.text.strcat
                0x0000000000000000        0x0 /Users/yeonwoo-kim/HealthHub/nacl_sdk/pepper_49/toolchain/mac_pnacl/bin/../lib/clang/3.7.0/lib/i686-nacl/crtbeginT.o
 .rel.text._vfprintf_r
                0x0000000000000000        0x0 /Users/yeonwoo-kim/HealthHub/nacl_sdk/pepper_49/toolchain/mac_pnacl/bin/../lib/clang/3.7.0/lib/i686-nacl/crtbeginT.o
 .rel.text.vsnprintf
                0x0000000000000000        0x0 /Users/yeonwoo-kim/HealthHub/nacl_sdk/pepper_49/toolchain/mac_pnacl/bin/../lib/clang/3.7.0/lib/i686-nacl/crtbeginT.o
 .rel.text._vsnprintf_r
                0x0000000000000000        0x0 /Users/yeonwoo-kim/HealthHub/nacl_sdk/pepper_49/toolchain/mac_pnacl/bin/../lib/clang/3.7.0/lib/i686-nacl/crtbeginT.o
 .rel.text.vsprintf
                0x0000000000000000        0x0 /Users/yeonwoo-kim/HealthHub/nacl_sdk/pepper_49/toolchain/mac_pnacl/bin/../lib/clang/3.7.0/lib/i686-nacl/crtbeginT.o
 .rel.text._vsprintf_r
                0x0000000000000000        0x0 /Users/yeonwoo-kim/HealthHub/nacl_sdk/pepper_49/toolchain/mac_pnacl/bin/../lib/clang/3.7.0/lib/i686-nacl/crtbeginT.o
 .rel.text._wcrtomb_r
                0x0000000000000000        0x0 /Users/yeonwoo-kim/HealthHub/nacl_sdk/pepper_49/toolchain/mac_pnacl/bin/../lib/clang/3.7.0/lib/i686-nacl/crtbeginT.o
 .rel.text.wcrtomb
                0x0000000000000000        0x0 /Users/yeonwoo-kim/HealthHub/nacl_sdk/pepper_49/toolchain/mac_pnacl/bin/../lib/clang/3.7.0/lib/i686-nacl/crtbeginT.o
 .rel.text._wcsrtombs_r
                0x0000000000000000        0x0 /Users/yeonwoo-kim/HealthHub/nacl_sdk/pepper_49/toolchain/mac_pnacl/bin/../lib/clang/3.7.0/lib/i686-nacl/crtbeginT.o
 .rel.text.wcsrtombs
                0x0000000000000000        0x0 /Users/yeonwoo-kim/HealthHub/nacl_sdk/pepper_49/toolchain/mac_pnacl/bin/../lib/clang/3.7.0/lib/i686-nacl/crtbeginT.o
 .rel.text._wctomb_r
                0x0000000000000000        0x0 /Users/yeonwoo-kim/HealthHub/nacl_sdk/pepper_49/toolchain/mac_pnacl/bin/../lib/clang/3.7.0/lib/i686-nacl/crtbeginT.o
 .rel.text.__swsetup_r
                0x0000000000000000        0x0 /Users/yeonwoo-kim/HealthHub/nacl_sdk/pepper_49/toolchain/mac_pnacl/bin/../lib/clang/3.7.0/lib/i686-nacl/crtbeginT.o
 .rel.text.__register_exitproc
                0x0000000000000000        0x0 /Users/yeonwoo-kim/HealthHub/nacl_sdk/pepper_49/toolchain/mac_pnacl/bin/../lib/clang/3.7.0/lib/i686-nacl/crtbeginT.o
 .rel.text._dtoa_r
                0x0000000000000000        0x0 /Users/yeonwoo-kim/HealthHub/nacl_sdk/pepper_49/toolchain/mac_pnacl/bin/../lib/clang/3.7.0/lib/i686-nacl/crtbeginT.o
 .rel.text.quorem
                0x0000000000000000        0x0 /Users/yeonwoo-kim/HealthHub/nacl_sdk/pepper_49/toolchain/mac_pnacl/bin/../lib/clang/3.7.0/lib/i686-nacl/crtbeginT.o
 .rel.text.__sfvwrite_r
                0x0000000000000000        0x0 /Users/yeonwoo-kim/HealthHub/nacl_sdk/pepper_49/toolchain/mac_pnacl/bin/../lib/clang/3.7.0/lib/i686-nacl/crtbeginT.o
 .rel.text._setlocale_r
                0x0000000000000000        0x0 /Users/yeonwoo-kim/HealthHub/nacl_sdk/pepper_49/toolchain/mac_pnacl/bin/../lib/clang/3.7.0/lib/i686-nacl/crtbeginT.o
 .rel.text.loadlocale
                0x0000000000000000        0x0 /Users/yeonwoo-kim/HealthHub/nacl_sdk/pepper_49/toolchain/mac_pnacl/bin/../lib/clang/3.7.0/lib/i686-nacl/crtbeginT.o
 .rel.text.__smakebuf_r
                0x0000000000000000        0x0 /Users/yeonwoo-kim/HealthHub/nacl_sdk/pepper_49/toolchain/mac_pnacl/bin/../lib/clang/3.7.0/lib/i686-nacl/crtbeginT.o
 .rel.text.strcasecmp
                0x0000000000000000        0x0 /Users/yeonwoo-kim/HealthHub/nacl_sdk/pepper_49/toolchain/mac_pnacl/bin/../lib/clang/3.7.0/lib/i686-nacl/crtbeginT.o
 .rel.text.strncasecmp
                0x0000000000000000        0x0 /Users/yeonwoo-kim/HealthHub/nacl_sdk/pepper_49/toolchain/mac_pnacl/bin/../lib/clang/3.7.0/lib/i686-nacl/crtbeginT.o
 .rel.text._strtol_r
                0x0000000000000000        0x0 /Users/yeonwoo-kim/HealthHub/nacl_sdk/pepper_49/toolchain/mac_pnacl/bin/../lib/clang/3.7.0/lib/i686-nacl/crtbeginT.o
 .rel.text._svfprintf_r
                0x0000000000000000        0x0 /Users/yeonwoo-kim/HealthHub/nacl_sdk/pepper_49/toolchain/mac_pnacl/bin/../lib/clang/3.7.0/lib/i686-nacl/crtbeginT.o
 .rel.text.__sprint_r
                0x0000000000000000        0x0 /Users/yeonwoo-kim/HealthHub/nacl_sdk/pepper_49/toolchain/mac_pnacl/bin/../lib/clang/3.7.0/lib/i686-nacl/crtbeginT.o
 .rel.text._vfiprintf_r
                0x0000000000000000        0x0 /Users/yeonwoo-kim/HealthHub/nacl_sdk/pepper_49/toolchain/mac_pnacl/bin/../lib/clang/3.7.0/lib/i686-nacl/crtbeginT.o
 .rel.text._fputwc_r
                0x0000000000000000        0x0 /Users/yeonwoo-kim/HealthHub/nacl_sdk/pepper_49/toolchain/mac_pnacl/bin/../lib/clang/3.7.0/lib/i686-nacl/crtbeginT.o
 .rel.text._svfiprintf_r
                0x0000000000000000        0x0 /Users/yeonwoo-kim/HealthHub/nacl_sdk/pepper_49/toolchain/mac_pnacl/bin/../lib/clang/3.7.0/lib/i686-nacl/crtbeginT.o
 *(.rel.fini)
 *(.rel.rodata .rel.rodata.* .rel.gnu.linkonce.r.*)
 *(.rel.data.rel.ro .rel.data.rel.ro.* .rel.gnu.linkonce.d.rel.ro.*)
 *(.rel.data .rel.data.* .rel.gnu.linkonce.d.*)
 *(.rel.tdata .rel.tdata.* .rel.gnu.linkonce.td.*)
 *(.rel.tbss .rel.tbss.* .rel.gnu.linkonce.tb.*)
 *(.rel.ctors)
 *(.rel.dtors)
 *(.rel.got)
 .rel.got       0x0000000000000000        0x0 /Users/yeonwoo-kim/HealthHub/nacl_sdk/pepper_49/toolchain/mac_pnacl/bin/../lib/clang/3.7.0/lib/i686-nacl/crtbeginT.o
 *(.rel.bss .rel.bss.* .rel.gnu.linkonce.b.*)
 *(.rel.ifunc)

.rel.plt        0x0000000010020134        0x0
 *(.rel.plt)
                0x0000000010020134                PROVIDE (__rel_iplt_start, .)
 *(.rel.iplt)
 .rel.iplt      0x0000000000000000        0x0 /Users/yeonwoo-kim/HealthHub/nacl_sdk/pepper_49/toolchain/mac_pnacl/bin/../lib/clang/3.7.0/lib/i686-nacl/crtbeginT.o
                0x0000000010020134                PROVIDE (__rel_iplt_end, .)

.rodata         0x0000000010020140     0x13e8
 *(.rodata .rodata.* .gnu.linkonce.r.*)
 .rodata.str1.1
                0x0000000010020140       0xd6 clang-newlib/Release/debugging_x86_32.o
 .rodata        0x0000000010020216        0x6 clang-newlib/Release/debugging_x86_32.o
 .rodata.str1.1
                0x000000001002021c      0x1ba /Users/yeonwoo-kim/HealthHub/nacl_sdk/pepper_49/lib/clang-newlib_x86_32/Release/liberror_handling.a(error_handling_x86_32.o)
                                        0x1c1 (size before relaxing)
 .rodata.str1.1
                0x00000000100203d6       0xad /Users/yeonwoo-kim/HealthHub/nacl_sdk/pepper_49/toolchain/mac_pnacl/bin/../x86_64-nacl/lib32/libppapi_stub.a(ppapi_plugin_start_8da67623.o)
 *fill*         0x0000000010020483        0x1 
 .rodata        0x0000000010020484        0x4 /Users/yeonwoo-kim/HealthHub/nacl_sdk/pepper_49/toolchain/mac_pnacl/bin/../x86_64-nacl/lib32/libpthread.a(nc_thread.o)
                0x0000000010020484                __nc_kMaxCachedMemoryBlocks
 .rodata.str1.1
                0x0000000010020488       0x22 /Users/yeonwoo-kim/HealthHub/nacl_sdk/pepper_49/toolchain/mac_pnacl/bin/../x86_64-nacl/lib32/libpthread.a(nc_thread.o)
 .rodata.str1.1
                0x00000000100204aa       0x14 /Users/yeonwoo-kim/HealthHub/nacl_sdk/pepper_49/toolchain/mac_pnacl/bin/../x86_64-nacl/lib32/libpthread.a(valgrind_annotations.o)
                                         0x16 (size before relaxing)
 .rodata.str1.1
                0x00000000100204be       0x27 /Users/yeonwoo-kim/HealthHub/nacl_sdk/pepper_49/toolchain/mac_pnacl/bin/../x86_64-nacl/lib32/libpthread.a(nc_init_irt.o)
 .rodata.str1.1
                0x00000000100204e5       0x55 /Users/yeonwoo-kim/HealthHub/nacl_sdk/pepper_49/toolchain/mac_pnacl/bin/../x86_64-nacl/lib32/libnacl.a(nacl_irt.o)
 *fill*         0x000000001002053a        0x6 
 .rodata.cst16  0x0000000010020540       0x50 /Users/yeonwoo-kim/HealthHub/nacl_sdk/pepper_49/toolchain/mac_pnacl/bin/../x86_64-nacl/lib32/libnacl.a(malloc.o)
 .rodata.str1.1
                0x0000000010020590       0x4e /Users/yeonwoo-kim/HealthHub/nacl_sdk/pepper_49/toolchain/mac_pnacl/bin/../x86_64-nacl/lib32/libnacl.a(malloc.o)
 .rodata.str1.1
                0x00000000100205de       0x88 /Users/yeonwoo-kim/HealthHub/nacl_sdk/pepper_49/toolchain/mac_pnacl/bin/../x86_64-nacl/lib32/libnacl.a(nacl_irt_init.o)
 .rodata        0x0000000010020666       0x13 /Users/yeonwoo-kim/HealthHub/nacl_sdk/pepper_49/toolchain/mac_pnacl/bin/../x86_64-nacl/lib32/libnacl.a(abort.o)
 *fill*         0x0000000010020679        0x3 
 .rodata._global_impure_ptr
                0x000000001002067c        0x4 /Users/yeonwoo-kim/HealthHub/nacl_sdk/pepper_49/toolchain/mac_pnacl/bin/../x86_64-nacl/lib32/libcrt_common.a(lib_a-impure.o)
                0x000000001002067c                _global_impure_ptr
 .rodata.str1.1
                0x0000000000000000       0x88 /Users/yeonwoo-kim/HealthHub/nacl_sdk/pepper_49/toolchain/mac_pnacl/bin/../x86_64-nacl/lib32/libcrt_common.a(lib_a-impure.o)
                                          0x2 (size before relaxing)
 .rodata.cst16  0x0000000010020680       0x20 /Users/yeonwoo-kim/HealthHub/nacl_sdk/pepper_49/toolchain/mac_pnacl/bin/../x86_64-nacl/lib32/libcrt_common.a(lib_a-vfprintf.o)
 .rodata.cst8   0x00000000100206a0       0x20 /Users/yeonwoo-kim/HealthHub/nacl_sdk/pepper_49/toolchain/mac_pnacl/bin/../x86_64-nacl/lib32/libcrt_common.a(lib_a-vfprintf.o)
 .rodata._vfprintf_r
                0x00000000100206c0      0x14c /Users/yeonwoo-kim/HealthHub/nacl_sdk/pepper_49/toolchain/mac_pnacl/bin/../x86_64-nacl/lib32/libcrt_common.a(lib_a-vfprintf.o)
 .rodata._vfprintf_r.blanks
                0x000000001002080c       0x10 /Users/yeonwoo-kim/HealthHub/nacl_sdk/pepper_49/toolchain/mac_pnacl/bin/../x86_64-nacl/lib32/libcrt_common.a(lib_a-vfprintf.o)
 .rodata._vfprintf_r.zeroes
                0x000000001002081c       0x10 /Users/yeonwoo-kim/HealthHub/nacl_sdk/pepper_49/toolchain/mac_pnacl/bin/../x86_64-nacl/lib32/libcrt_common.a(lib_a-vfprintf.o)
 .rodata.str1.1
                0x000000001002082c       0x53 /Users/yeonwoo-kim/HealthHub/nacl_sdk/pepper_49/toolchain/mac_pnacl/bin/../x86_64-nacl/lib32/libcrt_common.a(lib_a-vfprintf.o)
                                         0x55 (size before relaxing)
 *fill*         0x000000001002087f        0x1 
 .rodata.cst8   0x0000000010020880       0x50 /Users/yeonwoo-kim/HealthHub/nacl_sdk/pepper_49/toolchain/mac_pnacl/bin/../x86_64-nacl/lib32/libcrt_common.a(lib_a-dtoa.o)
                                         0x58 (size before relaxing)
 .rodata.cst16  0x0000000000000000       0x10 /Users/yeonwoo-kim/HealthHub/nacl_sdk/pepper_49/toolchain/mac_pnacl/bin/../x86_64-nacl/lib32/libcrt_common.a(lib_a-dtoa.o)
 .rodata._dtoa_r
                0x00000000100208d0       0x18 /Users/yeonwoo-kim/HealthHub/nacl_sdk/pepper_49/toolchain/mac_pnacl/bin/../x86_64-nacl/lib32/libcrt_common.a(lib_a-dtoa.o)
 .rodata.str1.1
                0x00000000100208e8        0xd /Users/yeonwoo-kim/HealthHub/nacl_sdk/pepper_49/toolchain/mac_pnacl/bin/../x86_64-nacl/lib32/libcrt_common.a(lib_a-dtoa.o)
                                          0xf (size before relaxing)
 *fill*         0x00000000100208f5        0x3 
 .rodata.loadlocale
                0x00000000100208f8       0xd4 /Users/yeonwoo-kim/HealthHub/nacl_sdk/pepper_49/toolchain/mac_pnacl/bin/../x86_64-nacl/lib32/libcrt_common.a(lib_a-locale.o)
 .rodata.str1.1
                0x00000000100209cc       0xe8 /Users/yeonwoo-kim/HealthHub/nacl_sdk/pepper_49/toolchain/mac_pnacl/bin/../x86_64-nacl/lib32/libcrt_common.a(lib_a-locale.o)
                                         0xf4 (size before relaxing)
 .rodata.categories
                0x0000000010020ab4       0x1c /Users/yeonwoo-kim/HealthHub/nacl_sdk/pepper_49/toolchain/mac_pnacl/bin/../x86_64-nacl/lib32/libcrt_common.a(lib_a-locale.o)
 .rodata.__jis_mbtowc
                0x0000000010020ad0       0x18 /Users/yeonwoo-kim/HealthHub/nacl_sdk/pepper_49/toolchain/mac_pnacl/bin/../x86_64-nacl/lib32/libcrt_common.a(lib_a-mbtowc_r.o)
 .rodata.JIS_action_table
                0x0000000010020ae8      0x120 /Users/yeonwoo-kim/HealthHub/nacl_sdk/pepper_49/toolchain/mac_pnacl/bin/../x86_64-nacl/lib32/libcrt_common.a(lib_a-mbtowc_r.o)
 .rodata.JIS_state_table
                0x0000000010020c08      0x120 /Users/yeonwoo-kim/HealthHub/nacl_sdk/pepper_49/toolchain/mac_pnacl/bin/../x86_64-nacl/lib32/libcrt_common.a(lib_a-mbtowc_r.o)
 .rodata.cst8   0x0000000010020d28        0x8 /Users/yeonwoo-kim/HealthHub/nacl_sdk/pepper_49/toolchain/mac_pnacl/bin/../x86_64-nacl/lib32/libcrt_common.a(lib_a-mprec.o)
                                         0x18 (size before relaxing)
 .rodata.__pow5mult.p05
                0x0000000010020d30        0xc /Users/yeonwoo-kim/HealthHub/nacl_sdk/pepper_49/toolchain/mac_pnacl/bin/../x86_64-nacl/lib32/libcrt_common.a(lib_a-mprec.o)
 *fill*         0x0000000010020d3c        0x4 
 .rodata.__mprec_tens
                0x0000000010020d40       0xc8 /Users/yeonwoo-kim/HealthHub/nacl_sdk/pepper_49/toolchain/mac_pnacl/bin/../x86_64-nacl/lib32/libcrt_common.a(lib_a-mprec.o)
                0x0000000010020d40                __mprec_tens
 .rodata.__mprec_bigtens
                0x0000000010020e08       0x28 /Users/yeonwoo-kim/HealthHub/nacl_sdk/pepper_49/toolchain/mac_pnacl/bin/../x86_64-nacl/lib32/libcrt_common.a(lib_a-mprec.o)
                0x0000000010020e08                __mprec_bigtens
 .rodata.__mprec_tinytens
                0x0000000010020e30       0x28 /Users/yeonwoo-kim/HealthHub/nacl_sdk/pepper_49/toolchain/mac_pnacl/bin/../x86_64-nacl/lib32/libcrt_common.a(lib_a-mprec.o)
                0x0000000010020e30                __mprec_tinytens
 .rodata.cst8   0x0000000010020e58        0x8 /Users/yeonwoo-kim/HealthHub/nacl_sdk/pepper_49/toolchain/mac_pnacl/bin/../x86_64-nacl/lib32/libcrt_common.a(lib_a-s_frexp.o)
 .rodata.cst16  0x0000000000000000       0x20 /Users/yeonwoo-kim/HealthHub/nacl_sdk/pepper_49/toolchain/mac_pnacl/bin/../x86_64-nacl/lib32/libcrt_common.a(lib_a-svfprintf.o)
 .rodata.cst8   0x0000000000000000       0x20 /Users/yeonwoo-kim/HealthHub/nacl_sdk/pepper_49/toolchain/mac_pnacl/bin/../x86_64-nacl/lib32/libcrt_common.a(lib_a-svfprintf.o)
 .rodata._svfprintf_r
                0x0000000010020e60      0x14c /Users/yeonwoo-kim/HealthHub/nacl_sdk/pepper_49/toolchain/mac_pnacl/bin/../x86_64-nacl/lib32/libcrt_common.a(lib_a-svfprintf.o)
 .rodata._svfprintf_r.blanks
                0x0000000010020fac       0x10 /Users/yeonwoo-kim/HealthHub/nacl_sdk/pepper_49/toolchain/mac_pnacl/bin/../x86_64-nacl/lib32/libcrt_common.a(lib_a-svfprintf.o)
 .rodata._svfprintf_r.zeroes
                0x0000000010020fbc       0x10 /Users/yeonwoo-kim/HealthHub/nacl_sdk/pepper_49/toolchain/mac_pnacl/bin/../x86_64-nacl/lib32/libcrt_common.a(lib_a-svfprintf.o)
 .rodata.str1.1
                0x0000000000000000       0x55 /Users/yeonwoo-kim/HealthHub/nacl_sdk/pepper_49/toolchain/mac_pnacl/bin/../x86_64-nacl/lib32/libcrt_common.a(lib_a-svfprintf.o)
 .rodata._vfiprintf_r
                0x0000000010020fcc      0x11c /Users/yeonwoo-kim/HealthHub/nacl_sdk/pepper_49/toolchain/mac_pnacl/bin/../x86_64-nacl/lib32/libcrt_common.a(lib_a-vfiprintf.o)
 .rodata._vfiprintf_r.blanks
                0x00000000100210e8       0x10 /Users/yeonwoo-kim/HealthHub/nacl_sdk/pepper_49/toolchain/mac_pnacl/bin/../x86_64-nacl/lib32/libcrt_common.a(lib_a-vfiprintf.o)
 .rodata._vfiprintf_r.zeroes
                0x00000000100210f8       0x10 /Users/yeonwoo-kim/HealthHub/nacl_sdk/pepper_49/toolchain/mac_pnacl/bin/../x86_64-nacl/lib32/libcrt_common.a(lib_a-vfiprintf.o)
 .rodata.str1.1
                0x0000000000000000       0x43 /Users/yeonwoo-kim/HealthHub/nacl_sdk/pepper_49/toolchain/mac_pnacl/bin/../x86_64-nacl/lib32/libcrt_common.a(lib_a-vfiprintf.o)
 .rodata._ctype_b
                0x0000000010021108      0x180 /Users/yeonwoo-kim/HealthHub/nacl_sdk/pepper_49/toolchain/mac_pnacl/bin/../x86_64-nacl/lib32/libcrt_common.a(lib_a-ctype_.o)
 .rodata._ctype_
                0x0000000010021288      0x101 /Users/yeonwoo-kim/HealthHub/nacl_sdk/pepper_49/toolchain/mac_pnacl/bin/../x86_64-nacl/lib32/libcrt_common.a(lib_a-ctype_.o)
                0x0000000010021288                _ctype_
 *fill*         0x0000000010021389        0x3 
 .rodata._svfiprintf_r
                0x000000001002138c      0x11c /Users/yeonwoo-kim/HealthHub/nacl_sdk/pepper_49/toolchain/mac_pnacl/bin/../x86_64-nacl/lib32/libcrt_common.a(lib_a-svfiprintf.o)
 .rodata._svfiprintf_r.blanks
                0x00000000100214a8       0x10 /Users/yeonwoo-kim/HealthHub/nacl_sdk/pepper_49/toolchain/mac_pnacl/bin/../x86_64-nacl/lib32/libcrt_common.a(lib_a-svfiprintf.o)
 .rodata._svfiprintf_r.zeroes
                0x00000000100214b8       0x10 /Users/yeonwoo-kim/HealthHub/nacl_sdk/pepper_49/toolchain/mac_pnacl/bin/../x86_64-nacl/lib32/libcrt_common.a(lib_a-svfiprintf.o)
 .rodata.str1.1
                0x0000000000000000       0x43 /Users/yeonwoo-kim/HealthHub/nacl_sdk/pepper_49/toolchain/mac_pnacl/bin/../x86_64-nacl/lib32/libcrt_common.a(lib_a-svfiprintf.o)
 .rodata.str1.1
                0x00000000100214c8       0x2c /Users/yeonwoo-kim/HealthHub/nacl_sdk/pepper_49/toolchain/mac_pnacl/bin/../x86_64-nacl/lib32/libnacl.a(nacl_irt_fdio.o)
                                         0x42 (size before relaxing)
 .rodata        0x00000000100214f4       0x34 /Users/yeonwoo-kim/HealthHub/nacl_sdk/pepper_49/toolchain/mac_pnacl/bin/../lib/clang/3.7.0/lib/i686-nacl/libgcc_eh.a(unwind-dw2-fde-glibc.o)

.rodata1
 *(.rodata1)

.eh_frame_hdr
 *(.eh_frame_hdr)

.eh_frame
 *(.eh_frame)

.gcc_except_table
 *(.gcc_except_table .gcc_except_table.*)

.exception_ranges
 *(.exception_ranges .exception_ranges*)
                0x0000000010021528                . = (ALIGN (0x10000) - ((0x10000 - .) & 0xffff))
                0x0000000010031528                . = DATA_SEGMENT_ALIGN (0x10000, 0x10000)

.eh_frame       0x0000000010031528     0x13a4
 *(.eh_frame)
 .eh_frame      0x0000000010031528        0x0 /Users/yeonwoo-kim/HealthHub/nacl_sdk/pepper_49/toolchain/mac_pnacl/bin/../lib/clang/3.7.0/lib/i686-nacl/crtbeginT.o
 .eh_frame      0x0000000010031528      0x3f0 /Users/yeonwoo-kim/HealthHub/nacl_sdk/pepper_49/toolchain/mac_pnacl/bin/../x86_64-nacl/lib32/libpthread.a(nc_thread.o)
 .eh_frame      0x0000000010031918      0x144 /Users/yeonwoo-kim/HealthHub/nacl_sdk/pepper_49/toolchain/mac_pnacl/bin/../x86_64-nacl/lib32/libpthread.a(nc_mutex.o)
                                        0x15c (size before relaxing)
 .eh_frame      0x0000000010031a5c      0x110 /Users/yeonwoo-kim/HealthHub/nacl_sdk/pepper_49/toolchain/mac_pnacl/bin/../x86_64-nacl/lib32/libpthread.a(nc_condvar.o)
                                        0x128 (size before relaxing)
 .eh_frame      0x0000000010031b6c      0x2f8 /Users/yeonwoo-kim/HealthHub/nacl_sdk/pepper_49/toolchain/mac_pnacl/bin/../x86_64-nacl/lib32/libpthread.a(valgrind_annotations.o)
                                        0x310 (size before relaxing)
 .eh_frame      0x0000000010031e64       0x14 /Users/yeonwoo-kim/HealthHub/nacl_sdk/pepper_49/toolchain/mac_pnacl/bin/../x86_64-nacl/lib32/libpthread.a(nc_init_irt.o)
                                         0x2c (size before relaxing)
 .eh_frame      0x0000000010031e78      0x114 /Users/yeonwoo-kim/HealthHub/nacl_sdk/pepper_49/toolchain/mac_pnacl/bin/../x86_64-nacl/lib32/libnacl.a(nacl_irt.o)
                                        0x12c (size before relaxing)
 .eh_frame      0x0000000010031f8c       0x14 /Users/yeonwoo-kim/HealthHub/nacl_sdk/pepper_49/toolchain/mac_pnacl/bin/../x86_64-nacl/lib32/libnacl.a(_exit.o)
                                         0x2c (size before relaxing)
 .eh_frame      0x0000000010031fa0       0x28 /Users/yeonwoo-kim/HealthHub/nacl_sdk/pepper_49/toolchain/mac_pnacl/bin/../x86_64-nacl/lib32/libnacl.a(mmap.o)
                                         0x40 (size before relaxing)
 .eh_frame      0x0000000010031fc8       0x1c /Users/yeonwoo-kim/HealthHub/nacl_sdk/pepper_49/toolchain/mac_pnacl/bin/../x86_64-nacl/lib32/libnacl.a(munmap.o)
                                         0x34 (size before relaxing)
 .eh_frame      0x0000000010031fe4       0x14 /Users/yeonwoo-kim/HealthHub/nacl_sdk/pepper_49/toolchain/mac_pnacl/bin/../x86_64-nacl/lib32/libnacl.a(nacl_interface_query.o)
                                         0x2c (size before relaxing)
 .eh_frame      0x0000000010031ff8       0x20 /Users/yeonwoo-kim/HealthHub/nacl_sdk/pepper_49/toolchain/mac_pnacl/bin/../x86_64-nacl/lib32/libnacl.a(write.o)
                                         0x38 (size before relaxing)
 .eh_frame      0x0000000010032018      0x3b8 /Users/yeonwoo-kim/HealthHub/nacl_sdk/pepper_49/toolchain/mac_pnacl/bin/../x86_64-nacl/lib32/libnacl.a(malloc.o)
                                        0x3d0 (size before relaxing)
 .eh_frame      0x00000000100323d0       0x28 /Users/yeonwoo-kim/HealthHub/nacl_sdk/pepper_49/toolchain/mac_pnacl/bin/../x86_64-nacl/lib32/libnacl.a(start.o)
                                         0x40 (size before relaxing)
 .eh_frame      0x00000000100323f8       0x14 /Users/yeonwoo-kim/HealthHub/nacl_sdk/pepper_49/toolchain/mac_pnacl/bin/../x86_64-nacl/lib32/libnacl.a(nacl_read_tp.o)
                                         0x2c (size before relaxing)
 .eh_frame      0x000000001003240c       0x1c /Users/yeonwoo-kim/HealthHub/nacl_sdk/pepper_49/toolchain/mac_pnacl/bin/../x86_64-nacl/lib32/libnacl.a(pthread_initialize_minimal.o)
                                         0x34 (size before relaxing)
 .eh_frame      0x0000000010032428       0x54 /Users/yeonwoo-kim/HealthHub/nacl_sdk/pepper_49/toolchain/mac_pnacl/bin/../x86_64-nacl/lib32/libnacl.a(tls.o)
                                         0x6c (size before relaxing)
 .eh_frame      0x000000001003247c       0x30 /Users/yeonwoo-kim/HealthHub/nacl_sdk/pepper_49/toolchain/mac_pnacl/bin/../x86_64-nacl/lib32/libnacl.a(nacl_irt_init.o)
                                         0x48 (size before relaxing)
 .eh_frame      0x00000000100324ac       0x14 /Users/yeonwoo-kim/HealthHub/nacl_sdk/pepper_49/toolchain/mac_pnacl/bin/../x86_64-nacl/lib32/libnacl.a(nacl_tls_get.o)
                                         0x2c (size before relaxing)
 .eh_frame      0x00000000100324c0       0x14 /Users/yeonwoo-kim/HealthHub/nacl_sdk/pepper_49/toolchain/mac_pnacl/bin/../x86_64-nacl/lib32/libnacl.a(nacl_tls_init.o)
                                         0x2c (size before relaxing)
 .eh_frame      0x00000000100324d4       0x14 /Users/yeonwoo-kim/HealthHub/nacl_sdk/pepper_49/toolchain/mac_pnacl/bin/../x86_64-nacl/lib32/libnacl.a(abort.o)
                                         0x2c (size before relaxing)
 .eh_frame      0x00000000100324e8       0x1c /Users/yeonwoo-kim/HealthHub/nacl_sdk/pepper_49/toolchain/mac_pnacl/bin/../x86_64-nacl/lib32/libnacl.a(sched_yield.o)
                                         0x34 (size before relaxing)
 .eh_frame      0x0000000010032504       0x1c /Users/yeonwoo-kim/HealthHub/nacl_sdk/pepper_49/toolchain/mac_pnacl/bin/../x86_64-nacl/lib32/libnacl.a(sysconf.o)
                                         0x34 (size before relaxing)
 .eh_frame      0x0000000010032520       0x1c /Users/yeonwoo-kim/HealthHub/nacl_sdk/pepper_49/toolchain/mac_pnacl/bin/../x86_64-nacl/lib32/libnacl.a(close.o)
                                         0x34 (size before relaxing)
 .eh_frame      0x000000001003253c       0x1c /Users/yeonwoo-kim/HealthHub/nacl_sdk/pepper_49/toolchain/mac_pnacl/bin/../x86_64-nacl/lib32/libnacl.a(fstat.o)
                                         0x34 (size before relaxing)
 .eh_frame      0x0000000010032558       0x20 /Users/yeonwoo-kim/HealthHub/nacl_sdk/pepper_49/toolchain/mac_pnacl/bin/../x86_64-nacl/lib32/libnacl.a(isatty.o)
                                         0x38 (size before relaxing)
 .eh_frame      0x0000000010032578       0x24 /Users/yeonwoo-kim/HealthHub/nacl_sdk/pepper_49/toolchain/mac_pnacl/bin/../x86_64-nacl/lib32/libnacl.a(lseek.o)
                                         0x3c (size before relaxing)
 .eh_frame      0x000000001003259c       0x1c /Users/yeonwoo-kim/HealthHub/nacl_sdk/pepper_49/toolchain/mac_pnacl/bin/../x86_64-nacl/lib32/libnacl.a(nanosleep.o)
                                         0x34 (size before relaxing)
 .eh_frame      0x00000000100325b8       0x14 /Users/yeonwoo-kim/HealthHub/nacl_sdk/pepper_49/toolchain/mac_pnacl/bin/../x86_64-nacl/lib32/libnacl.a(nacl_irt_fdio.o)
                                         0x2c (size before relaxing)
 .eh_frame      0x00000000100325cc       0x20 /Users/yeonwoo-kim/HealthHub/nacl_sdk/pepper_49/toolchain/mac_pnacl/bin/../x86_64-nacl/lib32/libnacl.a(read.o)
                                         0x38 (size before relaxing)
 .eh_frame      0x00000000100325ec      0x2dc /Users/yeonwoo-kim/HealthHub/nacl_sdk/pepper_49/toolchain/mac_pnacl/bin/../lib/clang/3.7.0/lib/i686-nacl/libgcc_eh.a(unwind-dw2-fde-glibc.o)
 .eh_frame      0x00000000100328c8        0x4 /Users/yeonwoo-kim/HealthHub/nacl_sdk/pepper_49/toolchain/mac_pnacl/bin/../lib/clang/3.7.0/lib/i686-nacl/crtend.o

.gcc_except_table
 *(.gcc_except_table .gcc_except_table.*)

.exception_ranges
 *(.exception_ranges .exception_ranges*)

.tdata          0x00000000100328d0      0x478
 *(.tdata .tdata.* .gnu.linkonce.td.*)
 .tdata._impure_ptr
                0x00000000100328d0        0x4 /Users/yeonwoo-kim/HealthHub/nacl_sdk/pepper_49/toolchain/mac_pnacl/bin/../x86_64-nacl/lib32/libcrt_common.a(lib_a-impure.o)
                0x00000000100328d0                _impure_ptr
 *fill*         0x00000000100328d4        0x4 
 .tdata.impure_data
                0x00000000100328d8      0x470 /Users/yeonwoo-kim/HealthHub/nacl_sdk/pepper_49/toolchain/mac_pnacl/bin/../x86_64-nacl/lib32/libcrt_common.a(lib_a-impure.o)

.tbss           0x0000000010032d48        0x8
 *(.tbss .tbss.* .gnu.linkonce.tb.*)
 .tbss          0x0000000010032d48        0x8 /Users/yeonwoo-kim/HealthHub/nacl_sdk/pepper_49/toolchain/mac_pnacl/bin/../x86_64-nacl/lib32/libpthread.a(nc_thread.o)
 *(.tcommon)

.preinit_array  0x0000000010032d48        0x0
                0x0000000010032d48                PROVIDE (__preinit_array_start, .)
 *(.preinit_array)
                0x0000000010032d48                PROVIDE (__preinit_array_end, .)

.init_array     0x0000000010032d48        0x4
                0x0000000010032d48                PROVIDE (__init_array_start, .)
 *(SORT(.init_array.*) SORT(.ctors.*))
 *(.init_array EXCLUDE_FILE(*crtend?.o *crtend.o *crtbegin?.o *crtbegin.o) .ctors)
 .init_array    0x0000000010032d48        0x4 /Users/yeonwoo-kim/HealthHub/nacl_sdk/pepper_49/toolchain/mac_pnacl/bin/../lib/clang/3.7.0/lib/i686-nacl/crtbeginT.o
                0x0000000010032d4c                PROVIDE (__init_array_end, .)

.fini_array     0x0000000010032d4c        0x4
                0x0000000010032d4c                PROVIDE (__fini_array_start, .)
 *(SORT(.fini_array.*) SORT(.dtors.*))
 *(.fini_array EXCLUDE_FILE(*crtend?.o *crtend.o *crtbegin?.o *crtbegin.o) .dtors)
 .fini_array    0x0000000010032d4c        0x4 /Users/yeonwoo-kim/HealthHub/nacl_sdk/pepper_49/toolchain/mac_pnacl/bin/../lib/clang/3.7.0/lib/i686-nacl/crtbeginT.o
                0x0000000010032d50                PROVIDE (__fini_array_end, .)

.ctors
 *crtbegin.o(.ctors)
 *crtbegin?.o(.ctors)
 *(EXCLUDE_FILE(*crtend?.o *crtend.o) .ctors)
 *(SORT(.ctors.*))
 *(.ctors)

.dtors
 *crtbegin.o(.dtors)
 *crtbegin?.o(.dtors)
 *(EXCLUDE_FILE(*crtend?.o *crtend.o) .dtors)
 *(SORT(.dtors.*))
 *(.dtors)

.jcr
 *(.jcr)

.data.rel.ro    0x0000000010032d50       0x14
 *(.data.rel.ro.local* .gnu.linkonce.d.rel.ro.local.*)
 .data.rel.ro.local
                0x0000000010032d50        0x8 /Users/yeonwoo-kim/HealthHub/nacl_sdk/pepper_49/toolchain/mac_pnacl/bin/../x86_64-nacl/lib32/libppapi_stub.a(thread_creator_ccf263e1.o)
 *(.data.rel.ro .data.rel.ro.* .gnu.linkonce.d.rel.ro.*)
 .data.rel.ro   0x0000000010032d58        0xc /Users/yeonwoo-kim/HealthHub/nacl_sdk/pepper_49/toolchain/mac_pnacl/bin/../x86_64-nacl/lib32/libppapi_stub.a(ppapi_plugin_main_399d0cf7.o)

.dynamic
 *(.dynamic)

.got            0x0000000010032d64        0x0
 *(.got)
 .got           0x0000000000000000        0x0 /Users/yeonwoo-kim/HealthHub/nacl_sdk/pepper_49/toolchain/mac_pnacl/bin/../lib/clang/3.7.0/lib/i686-nacl/crtbeginT.o
 *(.igot)
                0x0000000010032d64                . = DATA_SEGMENT_RELRO_END (., (SIZEOF (.got.plt) >= 0xc)?0xc:0x0)

.got.plt        0x0000000010032d64        0xc
 *(.got.plt)
 .got.plt       0x0000000010032d64        0xc /Users/yeonwoo-kim/HealthHub/nacl_sdk/pepper_49/toolchain/mac_pnacl/bin/../lib/clang/3.7.0/lib/i686-nacl/crtbeginT.o
                0x0000000010032d64                _GLOBAL_OFFSET_TABLE_
 *(.igot.plt)
 .igot.plt      0x0000000000000000        0x0 /Users/yeonwoo-kim/HealthHub/nacl_sdk/pepper_49/toolchain/mac_pnacl/bin/../lib/clang/3.7.0/lib/i686-nacl/crtbeginT.o

.data           0x0000000010032d70      0x690
 *(.data .data.* .gnu.linkonce.d.*)
 .data          0x0000000010032d70        0x0 /Users/yeonwoo-kim/HealthHub/nacl_sdk/pepper_49/toolchain/mac_pnacl/bin/../x86_64-nacl/lib32/crti.o
 .data          0x0000000010032d70        0x0 /Users/yeonwoo-kim/HealthHub/nacl_sdk/pepper_49/toolchain/mac_pnacl/bin/../lib/clang/3.7.0/lib/i686-nacl/crtbeginT.o
 .data          0x0000000010032d70       0x18 clang-newlib/Release/debugging_x86_32.o
 .data          0x0000000010032d88        0x0 /Users/yeonwoo-kim/HealthHub/nacl_sdk/pepper_49/lib/clang-newlib_x86_32/Release/liberror_handling.a(error_handling_x86_32.o)
 .data          0x0000000010032d88        0x0 /Users/yeonwoo-kim/HealthHub/nacl_sdk/pepper_49/lib/clang-newlib_x86_32/Release/liberror_handling.a(string_stream_x86_32.o)
 .data          0x0000000010032d88        0x0 /Users/yeonwoo-kim/HealthHub/nacl_sdk/pepper_49/toolchain/mac_pnacl/bin/../x86_64-nacl/lib32/libppapi_stub.a(plugin_main_irt_21ce9d26.o)
 .data          0x0000000010032d88        0x0 /Users/yeonwoo-kim/HealthHub/nacl_sdk/pepper_49/toolchain/mac_pnacl/bin/../x86_64-nacl/lib32/libppapi_stub.a(ppapi_plugin_main_399d0cf7.o)
 .data          0x0000000010032d88        0x0 /Users/yeonwoo-kim/HealthHub/nacl_sdk/pepper_49/toolchain/mac_pnacl/bin/../x86_64-nacl/lib32/libppapi_stub.a(ppapi_plugin_start_8da67623.o)
 .data          0x0000000010032d88        0x0 /Users/yeonwoo-kim/HealthHub/nacl_sdk/pepper_49/toolchain/mac_pnacl/bin/../x86_64-nacl/lib32/libppapi_stub.a(thread_creator_ccf263e1.o)
 .data          0x0000000010032d88        0x4 /Users/yeonwoo-kim/HealthHub/nacl_sdk/pepper_49/toolchain/mac_pnacl/bin/../x86_64-nacl/lib32/libpthread.a(nc_thread.o)
                0x0000000010032d88                __nc_running_threads_counter
 .data          0x0000000010032d8c        0x0 /Users/yeonwoo-kim/HealthHub/nacl_sdk/pepper_49/toolchain/mac_pnacl/bin/../x86_64-nacl/lib32/libpthread.a(nc_mutex.o)
 .data          0x0000000010032d8c        0x0 /Users/yeonwoo-kim/HealthHub/nacl_sdk/pepper_49/toolchain/mac_pnacl/bin/../x86_64-nacl/lib32/libpthread.a(nc_condvar.o)
 .data          0x0000000010032d8c        0x4 /Users/yeonwoo-kim/HealthHub/nacl_sdk/pepper_49/toolchain/mac_pnacl/bin/../x86_64-nacl/lib32/libpthread.a(valgrind_annotations.o)
 .data          0x0000000010032d90        0x0 /Users/yeonwoo-kim/HealthHub/nacl_sdk/pepper_49/toolchain/mac_pnacl/bin/../x86_64-nacl/lib32/libpthread.a(nc_init_irt.o)
 .data          0x0000000010032d90       0x20 /Users/yeonwoo-kim/HealthHub/nacl_sdk/pepper_49/toolchain/mac_pnacl/bin/../x86_64-nacl/lib32/libnacl.a(nacl_irt.o)
                0x0000000010032d90                __libnacl_irt_fdio
 .data          0x0000000010032db0        0x0 /Users/yeonwoo-kim/HealthHub/nacl_sdk/pepper_49/toolchain/mac_pnacl/bin/../x86_64-nacl/lib32/libnacl.a(_exit.o)
 .data          0x0000000010032db0        0x0 /Users/yeonwoo-kim/HealthHub/nacl_sdk/pepper_49/toolchain/mac_pnacl/bin/../x86_64-nacl/lib32/libnacl.a(mmap.o)
 .data          0x0000000010032db0        0x0 /Users/yeonwoo-kim/HealthHub/nacl_sdk/pepper_49/toolchain/mac_pnacl/bin/../x86_64-nacl/lib32/libnacl.a(munmap.o)
 .data          0x0000000010032db0        0x0 /Users/yeonwoo-kim/HealthHub/nacl_sdk/pepper_49/toolchain/mac_pnacl/bin/../x86_64-nacl/lib32/libnacl.a(nacl_interface_query.o)
 .data          0x0000000010032db0        0x0 /Users/yeonwoo-kim/HealthHub/nacl_sdk/pepper_49/toolchain/mac_pnacl/bin/../x86_64-nacl/lib32/libnacl.a(write.o)
 .data          0x0000000010032db0        0x4 /Users/yeonwoo-kim/HealthHub/nacl_sdk/pepper_49/toolchain/mac_pnacl/bin/../x86_64-nacl/lib32/libnacl.a(environ.o)
                0x0000000010032db0                environ
 .data          0x0000000010032db4        0x0 /Users/yeonwoo-kim/HealthHub/nacl_sdk/pepper_49/toolchain/mac_pnacl/bin/../x86_64-nacl/lib32/libnacl.a(malloc.o)
 .data          0x0000000010032db4        0x0 /Users/yeonwoo-kim/HealthHub/nacl_sdk/pepper_49/toolchain/mac_pnacl/bin/../x86_64-nacl/lib32/libnacl.a(start.o)
 .data          0x0000000010032db4        0x0 /Users/yeonwoo-kim/HealthHub/nacl_sdk/pepper_49/toolchain/mac_pnacl/bin/../x86_64-nacl/lib32/libnacl.a(nacl_read_tp.o)
 .data          0x0000000010032db4        0x0 /Users/yeonwoo-kim/HealthHub/nacl_sdk/pepper_49/toolchain/mac_pnacl/bin/../x86_64-nacl/lib32/libnacl.a(pthread_initialize_minimal.o)
 .data          0x0000000010032db4        0x0 /Users/yeonwoo-kim/HealthHub/nacl_sdk/pepper_49/toolchain/mac_pnacl/bin/../x86_64-nacl/lib32/libnacl.a(tls.o)
 .data          0x0000000010032db4        0x0 /Users/yeonwoo-kim/HealthHub/nacl_sdk/pepper_49/toolchain/mac_pnacl/bin/../x86_64-nacl/lib32/libnacl.a(nacl_irt_init.o)
 .data          0x0000000010032db4        0x0 /Users/yeonwoo-kim/HealthHub/nacl_sdk/pepper_49/toolchain/mac_pnacl/bin/../x86_64-nacl/lib32/libnacl.a(nacl_tls_get.o)
 .data          0x0000000010032db4        0x0 /Users/yeonwoo-kim/HealthHub/nacl_sdk/pepper_49/toolchain/mac_pnacl/bin/../x86_64-nacl/lib32/libnacl.a(nacl_tls_init.o)
 .data          0x0000000010032db4        0x0 /Users/yeonwoo-kim/HealthHub/nacl_sdk/pepper_49/toolchain/mac_pnacl/bin/../x86_64-nacl/lib32/libnacl.a(abort.o)
 .data          0x0000000010032db4        0x0 /Users/yeonwoo-kim/HealthHub/nacl_sdk/pepper_49/toolchain/mac_pnacl/bin/../x86_64-nacl/lib32/libnacl.a(sched_yield.o)
 .data          0x0000000010032db4        0x0 /Users/yeonwoo-kim/HealthHub/nacl_sdk/pepper_49/toolchain/mac_pnacl/bin/../x86_64-nacl/lib32/libnacl.a(sysconf.o)
 .data          0x0000000010032db4        0x0 /Users/yeonwoo-kim/HealthHub/nacl_sdk/pepper_49/toolchain/mac_pnacl/bin/../x86_64-nacl/lib32/libcrt_common.a(lib_a-atexit.o)
 .data          0x0000000010032db4        0x0 /Users/yeonwoo-kim/HealthHub/nacl_sdk/pepper_49/toolchain/mac_pnacl/bin/../x86_64-nacl/lib32/libcrt_common.a(lib_a-errno.o)
 .data          0x0000000010032db4        0x0 /Users/yeonwoo-kim/HealthHub/nacl_sdk/pepper_49/toolchain/mac_pnacl/bin/../x86_64-nacl/lib32/libcrt_common.a(lib_a-exit.o)
 .data          0x0000000010032db4        0x0 /Users/yeonwoo-kim/HealthHub/nacl_sdk/pepper_49/toolchain/mac_pnacl/bin/../x86_64-nacl/lib32/libcrt_common.a(lib_a-fflush.o)
 .data          0x0000000010032db4        0x0 /Users/yeonwoo-kim/HealthHub/nacl_sdk/pepper_49/toolchain/mac_pnacl/bin/../x86_64-nacl/lib32/libcrt_common.a(lib_a-findfp.o)
 .data.__sfp_lock
                0x0000000010032db4       0x14 /Users/yeonwoo-kim/HealthHub/nacl_sdk/pepper_49/toolchain/mac_pnacl/bin/../x86_64-nacl/lib32/libcrt_common.a(lib_a-findfp.o)
 .data.__sinit_lock
                0x0000000010032dc8       0x14 /Users/yeonwoo-kim/HealthHub/nacl_sdk/pepper_49/toolchain/mac_pnacl/bin/../x86_64-nacl/lib32/libcrt_common.a(lib_a-findfp.o)
 .data          0x0000000010032ddc        0x0 /Users/yeonwoo-kim/HealthHub/nacl_sdk/pepper_49/toolchain/mac_pnacl/bin/../x86_64-nacl/lib32/libcrt_common.a(lib_a-fini.o)
 .data          0x0000000010032ddc        0x0 /Users/yeonwoo-kim/HealthHub/nacl_sdk/pepper_49/toolchain/mac_pnacl/bin/../x86_64-nacl/lib32/libcrt_common.a(lib_a-fprintf.o)
 .data          0x0000000010032ddc        0x0 /Users/yeonwoo-kim/HealthHub/nacl_sdk/pepper_49/toolchain/mac_pnacl/bin/../x86_64-nacl/lib32/libcrt_common.a(lib_a-fwalk.o)
 .data          0x0000000010032ddc        0x0 /Users/yeonwoo-kim/HealthHub/nacl_sdk/pepper_49/toolchain/mac_pnacl/bin/../x86_64-nacl/lib32/libcrt_common.a(lib_a-fwrite.o)
 .data          0x0000000010032ddc        0x0 /Users/yeonwoo-kim/HealthHub/nacl_sdk/pepper_49/toolchain/mac_pnacl/bin/../x86_64-nacl/lib32/libcrt_common.a(lib_a-getenv.o)
 .data          0x0000000010032ddc        0x0 /Users/yeonwoo-kim/HealthHub/nacl_sdk/pepper_49/toolchain/mac_pnacl/bin/../x86_64-nacl/lib32/libcrt_common.a(lib_a-getenv_r.o)
 .data          0x0000000010032ddc        0x0 /Users/yeonwoo-kim/HealthHub/nacl_sdk/pepper_49/toolchain/mac_pnacl/bin/../x86_64-nacl/lib32/libcrt_common.a(lib_a-impure.o)
 *fill*         0x0000000010032ddc        0x4 
 .data.global_impure_data
                0x0000000010032de0      0x470 /Users/yeonwoo-kim/HealthHub/nacl_sdk/pepper_49/toolchain/mac_pnacl/bin/../x86_64-nacl/lib32/libcrt_common.a(lib_a-impure.o)
 .data          0x0000000010033250        0x0 /Users/yeonwoo-kim/HealthHub/nacl_sdk/pepper_49/toolchain/mac_pnacl/bin/../x86_64-nacl/lib32/libcrt_common.a(lib_a-init.o)
 .data          0x0000000010033250        0x0 /Users/yeonwoo-kim/HealthHub/nacl_sdk/pepper_49/toolchain/mac_pnacl/bin/../x86_64-nacl/lib32/libcrt_common.a(lib_a-memcpy.o)
 .data          0x0000000010033250        0x0 /Users/yeonwoo-kim/HealthHub/nacl_sdk/pepper_49/toolchain/mac_pnacl/bin/../x86_64-nacl/lib32/libcrt_common.a(lib_a-memset.o)
 .data          0x0000000010033250        0x0 /Users/yeonwoo-kim/HealthHub/nacl_sdk/pepper_49/toolchain/mac_pnacl/bin/../x86_64-nacl/lib32/libcrt_common.a(lib_a-sleep.o)
 .data          0x0000000010033250        0x0 /Users/yeonwoo-kim/HealthHub/nacl_sdk/pepper_49/toolchain/mac_pnacl/bin/../x86_64-nacl/lib32/libcrt_common.a(lib_a-stdio.o)
 .data          0x0000000010033250        0x0 /Users/yeonwoo-kim/HealthHub/nacl_sdk/pepper_49/toolchain/mac_pnacl/bin/../x86_64-nacl/lib32/libcrt_common.a(lib_a-strcat.o)
 .data          0x0000000010033250        0x0 /Users/yeonwoo-kim/HealthHub/nacl_sdk/pepper_49/toolchain/mac_pnacl/bin/../x86_64-nacl/lib32/libcrt_common.a(lib_a-strcmp.o)
 .data          0x0000000010033250        0x0 /Users/yeonwoo-kim/HealthHub/nacl_sdk/pepper_49/toolchain/mac_pnacl/bin/../x86_64-nacl/lib32/libcrt_common.a(lib_a-strcpy.o)
 .data          0x0000000010033250        0x0 /Users/yeonwoo-kim/HealthHub/nacl_sdk/pepper_49/toolchain/mac_pnacl/bin/../x86_64-nacl/lib32/libcrt_common.a(lib_a-strlen.o)
 .data          0x0000000010033250        0x0 /Users/yeonwoo-kim/HealthHub/nacl_sdk/pepper_49/toolchain/mac_pnacl/bin/../x86_64-nacl/lib32/libcrt_common.a(lib_a-strncmp.o)
 .data          0x0000000010033250        0x0 /Users/yeonwoo-kim/HealthHub/nacl_sdk/pepper_49/toolchain/mac_pnacl/bin/../x86_64-nacl/lib32/libcrt_common.a(lib_a-vfprintf.o)
 .data          0x0000000010033250        0x0 /Users/yeonwoo-kim/HealthHub/nacl_sdk/pepper_49/toolchain/mac_pnacl/bin/../x86_64-nacl/lib32/libcrt_common.a(lib_a-vsnprintf.o)
 .data          0x0000000010033250        0x0 /Users/yeonwoo-kim/HealthHub/nacl_sdk/pepper_49/toolchain/mac_pnacl/bin/../x86_64-nacl/lib32/libcrt_common.a(lib_a-vsprintf.o)
 .data          0x0000000010033250        0x0 /Users/yeonwoo-kim/HealthHub/nacl_sdk/pepper_49/toolchain/mac_pnacl/bin/../x86_64-nacl/lib32/libcrt_common.a(lib_a-wcrtomb.o)
 .data          0x0000000010033250        0x0 /Users/yeonwoo-kim/HealthHub/nacl_sdk/pepper_49/toolchain/mac_pnacl/bin/../x86_64-nacl/lib32/libcrt_common.a(lib_a-wcsrtombs.o)
 .data          0x0000000010033250        0x0 /Users/yeonwoo-kim/HealthHub/nacl_sdk/pepper_49/toolchain/mac_pnacl/bin/../x86_64-nacl/lib32/libcrt_common.a(lib_a-wctomb_r.o)
 .data.__wctomb
                0x0000000010033250        0x4 /Users/yeonwoo-kim/HealthHub/nacl_sdk/pepper_49/toolchain/mac_pnacl/bin/../x86_64-nacl/lib32/libcrt_common.a(lib_a-wctomb_r.o)
                0x0000000010033250                __wctomb
 .data          0x0000000010033254        0x0 /Users/yeonwoo-kim/HealthHub/nacl_sdk/pepper_49/toolchain/mac_pnacl/bin/../x86_64-nacl/lib32/libcrt_common.a(lib_a-wsetup.o)
 .data          0x0000000010033254        0x0 /Users/yeonwoo-kim/HealthHub/nacl_sdk/pepper_49/toolchain/mac_pnacl/bin/../x86_64-nacl/lib32/libcrt_common.a(lib_a-__atexit.o)
 .data          0x0000000010033254        0x0 /Users/yeonwoo-kim/HealthHub/nacl_sdk/pepper_49/toolchain/mac_pnacl/bin/../x86_64-nacl/lib32/libcrt_common.a(lib_a-__call_atexit.o)
 .data.__atexit_lock
                0x0000000010033254       0x14 /Users/yeonwoo-kim/HealthHub/nacl_sdk/pepper_49/toolchain/mac_pnacl/bin/../x86_64-nacl/lib32/libcrt_common.a(lib_a-__call_atexit.o)
                0x0000000010033254                __atexit_lock
 .data          0x0000000010033268        0x0 /Users/yeonwoo-kim/HealthHub/nacl_sdk/pepper_49/toolchain/mac_pnacl/bin/../x86_64-nacl/lib32/libcrt_common.a(lib_a-dtoa.o)
 .data          0x0000000010033268        0x0 /Users/yeonwoo-kim/HealthHub/nacl_sdk/pepper_49/toolchain/mac_pnacl/bin/../x86_64-nacl/lib32/libcrt_common.a(lib_a-envlock.o)
 .data.__env_lock_object
                0x0000000010033268       0x14 /Users/yeonwoo-kim/HealthHub/nacl_sdk/pepper_49/toolchain/mac_pnacl/bin/../x86_64-nacl/lib32/libcrt_common.a(lib_a-envlock.o)
 .data          0x000000001003327c        0x0 /Users/yeonwoo-kim/HealthHub/nacl_sdk/pepper_49/toolchain/mac_pnacl/bin/../x86_64-nacl/lib32/libcrt_common.a(lib_a-fclose.o)
 .data          0x000000001003327c        0x0 /Users/yeonwoo-kim/HealthHub/nacl_sdk/pepper_49/toolchain/mac_pnacl/bin/../x86_64-nacl/lib32/libcrt_common.a(lib_a-fvwrite.o)
 .data          0x000000001003327c        0x0 /Users/yeonwoo-kim/HealthHub/nacl_sdk/pepper_49/toolchain/mac_pnacl/bin/../x86_64-nacl/lib32/libcrt_common.a(lib_a-locale.o)
 .data.__mb_cur_max
                0x000000001003327c        0x4 /Users/yeonwoo-kim/HealthHub/nacl_sdk/pepper_49/toolchain/mac_pnacl/bin/../x86_64-nacl/lib32/libcrt_common.a(lib_a-locale.o)
                0x000000001003327c                __mb_cur_max
 .data.__default_locale
                0x0000000010033280       0x20 /Users/yeonwoo-kim/HealthHub/nacl_sdk/pepper_49/toolchain/mac_pnacl/bin/../x86_64-nacl/lib32/libcrt_common.a(lib_a-locale.o)
                0x0000000010033280                __default_locale
 .data.current_categories
                0x00000000100332a0       0xe0 /Users/yeonwoo-kim/HealthHub/nacl_sdk/pepper_49/toolchain/mac_pnacl/bin/../x86_64-nacl/lib32/libcrt_common.a(lib_a-locale.o)
 .data.lc_ctype_charset
                0x0000000010033380       0x20 /Users/yeonwoo-kim/HealthHub/nacl_sdk/pepper_49/toolchain/mac_pnacl/bin/../x86_64-nacl/lib32/libcrt_common.a(lib_a-locale.o)
 .data.lc_message_charset
                0x00000000100333a0       0x20 /Users/yeonwoo-kim/HealthHub/nacl_sdk/pepper_49/toolchain/mac_pnacl/bin/../x86_64-nacl/lib32/libcrt_common.a(lib_a-locale.o)
 .data.lconv    0x00000000100333c0       0x38 /Users/yeonwoo-kim/HealthHub/nacl_sdk/pepper_49/toolchain/mac_pnacl/bin/../x86_64-nacl/lib32/libcrt_common.a(lib_a-locale.o)
 .data          0x00000000100333f8        0x0 /Users/yeonwoo-kim/HealthHub/nacl_sdk/pepper_49/toolchain/mac_pnacl/bin/../x86_64-nacl/lib32/libcrt_common.a(lib_a-makebuf.o)
 .data          0x00000000100333f8        0x0 /Users/yeonwoo-kim/HealthHub/nacl_sdk/pepper_49/toolchain/mac_pnacl/bin/../x86_64-nacl/lib32/libcrt_common.a(lib_a-mbtowc_r.o)
 .data.__mbtowc
                0x00000000100333f8        0x4 /Users/yeonwoo-kim/HealthHub/nacl_sdk/pepper_49/toolchain/mac_pnacl/bin/../x86_64-nacl/lib32/libcrt_common.a(lib_a-mbtowc_r.o)
                0x00000000100333f8                __mbtowc
 .data          0x00000000100333fc        0x0 /Users/yeonwoo-kim/HealthHub/nacl_sdk/pepper_49/toolchain/mac_pnacl/bin/../x86_64-nacl/lib32/libcrt_common.a(lib_a-memchr.o)
 .data          0x00000000100333fc        0x0 /Users/yeonwoo-kim/HealthHub/nacl_sdk/pepper_49/toolchain/mac_pnacl/bin/../x86_64-nacl/lib32/libcrt_common.a(lib_a-memmove.o)
 .data          0x00000000100333fc        0x0 /Users/yeonwoo-kim/HealthHub/nacl_sdk/pepper_49/toolchain/mac_pnacl/bin/../x86_64-nacl/lib32/libcrt_common.a(lib_a-mprec.o)
 .data          0x00000000100333fc        0x0 /Users/yeonwoo-kim/HealthHub/nacl_sdk/pepper_49/toolchain/mac_pnacl/bin/../x86_64-nacl/lib32/libcrt_common.a(lib_a-s_fpclassify.o)
 .data          0x00000000100333fc        0x0 /Users/yeonwoo-kim/HealthHub/nacl_sdk/pepper_49/toolchain/mac_pnacl/bin/../x86_64-nacl/lib32/libcrt_common.a(lib_a-s_frexp.o)
 .data          0x00000000100333fc        0x0 /Users/yeonwoo-kim/HealthHub/nacl_sdk/pepper_49/toolchain/mac_pnacl/bin/../x86_64-nacl/lib32/libcrt_common.a(lib_a-strcasecmp.o)
 .data          0x00000000100333fc        0x0 /Users/yeonwoo-kim/HealthHub/nacl_sdk/pepper_49/toolchain/mac_pnacl/bin/../x86_64-nacl/lib32/libcrt_common.a(lib_a-strchr.o)
 .data          0x00000000100333fc        0x0 /Users/yeonwoo-kim/HealthHub/nacl_sdk/pepper_49/toolchain/mac_pnacl/bin/../x86_64-nacl/lib32/libcrt_common.a(lib_a-strlcpy.o)
 .data          0x00000000100333fc        0x0 /Users/yeonwoo-kim/HealthHub/nacl_sdk/pepper_49/toolchain/mac_pnacl/bin/../x86_64-nacl/lib32/libcrt_common.a(lib_a-strncasecmp.o)
 .data          0x00000000100333fc        0x0 /Users/yeonwoo-kim/HealthHub/nacl_sdk/pepper_49/toolchain/mac_pnacl/bin/../x86_64-nacl/lib32/libcrt_common.a(lib_a-strncpy.o)
 .data          0x00000000100333fc        0x0 /Users/yeonwoo-kim/HealthHub/nacl_sdk/pepper_49/toolchain/mac_pnacl/bin/../x86_64-nacl/lib32/libcrt_common.a(lib_a-strtol.o)
 .data          0x00000000100333fc        0x0 /Users/yeonwoo-kim/HealthHub/nacl_sdk/pepper_49/toolchain/mac_pnacl/bin/../x86_64-nacl/lib32/libcrt_common.a(lib_a-svfprintf.o)
 .data          0x00000000100333fc        0x0 /Users/yeonwoo-kim/HealthHub/nacl_sdk/pepper_49/toolchain/mac_pnacl/bin/../x86_64-nacl/lib32/libcrt_common.a(lib_a-vfiprintf.o)
 .data          0x00000000100333fc        0x0 /Users/yeonwoo-kim/HealthHub/nacl_sdk/pepper_49/toolchain/mac_pnacl/bin/../x86_64-nacl/lib32/libcrt_common.a(lib_a-wcsnrtombs.o)
 .data          0x00000000100333fc        0x0 /Users/yeonwoo-kim/HealthHub/nacl_sdk/pepper_49/toolchain/mac_pnacl/bin/../x86_64-nacl/lib32/libcrt_common.a(lib_a-ctype_.o)
 .data.__ctype_ptr__
                0x00000000100333fc        0x4 /Users/yeonwoo-kim/HealthHub/nacl_sdk/pepper_49/toolchain/mac_pnacl/bin/../x86_64-nacl/lib32/libcrt_common.a(lib_a-ctype_.o)
                0x00000000100333fc                __ctype_ptr__
 .data          0x0000000010033400        0x0 /Users/yeonwoo-kim/HealthHub/nacl_sdk/pepper_49/toolchain/mac_pnacl/bin/../x86_64-nacl/lib32/libcrt_common.a(lib_a-fputwc.o)
 .data          0x0000000010033400        0x0 /Users/yeonwoo-kim/HealthHub/nacl_sdk/pepper_49/toolchain/mac_pnacl/bin/../x86_64-nacl/lib32/libcrt_common.a(lib_a-svfiprintf.o)
 .data          0x0000000010033400        0x0 /Users/yeonwoo-kim/HealthHub/nacl_sdk/pepper_49/toolchain/mac_pnacl/bin/../x86_64-nacl/lib32/libcrt_common.a(lib_a-wbuf.o)
 .data          0x0000000010033400        0x0 /Users/yeonwoo-kim/HealthHub/nacl_sdk/pepper_49/toolchain/mac_pnacl/bin/../x86_64-nacl/lib32/libnacl.a(close.o)
 .data          0x0000000010033400        0x0 /Users/yeonwoo-kim/HealthHub/nacl_sdk/pepper_49/toolchain/mac_pnacl/bin/../x86_64-nacl/lib32/libnacl.a(fstat.o)
 .data          0x0000000010033400        0x0 /Users/yeonwoo-kim/HealthHub/nacl_sdk/pepper_49/toolchain/mac_pnacl/bin/../x86_64-nacl/lib32/libnacl.a(isatty.o)
 .data          0x0000000010033400        0x0 /Users/yeonwoo-kim/HealthHub/nacl_sdk/pepper_49/toolchain/mac_pnacl/bin/../x86_64-nacl/lib32/libnacl.a(lseek.o)
 .data          0x0000000010033400        0x0 /Users/yeonwoo-kim/HealthHub/nacl_sdk/pepper_49/toolchain/mac_pnacl/bin/../x86_64-nacl/lib32/libnacl.a(nanosleep.o)
 .data          0x0000000010033400        0x0 /Users/yeonwoo-kim/HealthHub/nacl_sdk/pepper_49/toolchain/mac_pnacl/bin/../x86_64-nacl/lib32/libnacl.a(nacl_irt_fdio.o)
 .data          0x0000000010033400        0x0 /Users/yeonwoo-kim/HealthHub/nacl_sdk/pepper_49/toolchain/mac_pnacl/bin/../x86_64-nacl/lib32/libnacl.a(read.o)
 .data          0x0000000010033400        0x0 /Users/yeonwoo-kim/HealthHub/nacl_sdk/pepper_49/toolchain/mac_pnacl/bin/../lib/clang/3.7.0/lib/i686-nacl/libgcc.a(udivdi3.o)
 .data          0x0000000010033400        0x0 /Users/yeonwoo-kim/HealthHub/nacl_sdk/pepper_49/toolchain/mac_pnacl/bin/../lib/clang/3.7.0/lib/i686-nacl/libgcc.a(udivmoddi4.o)
 .data          0x0000000010033400        0x0 /Users/yeonwoo-kim/HealthHub/nacl_sdk/pepper_49/toolchain/mac_pnacl/bin/../lib/clang/3.7.0/lib/i686-nacl/libgcc.a(umoddi3.o)
 .data          0x0000000010033400        0x0 /Users/yeonwoo-kim/HealthHub/nacl_sdk/pepper_49/toolchain/mac_pnacl/bin/../lib/clang/3.7.0/lib/i686-nacl/libgcc_eh.a(unwind-dw2-fde-glibc.o)
 .data          0x0000000010033400        0x0 /Users/yeonwoo-kim/HealthHub/nacl_sdk/pepper_49/toolchain/mac_pnacl/bin/../lib/clang/3.7.0/lib/i686-nacl/crtend.o
 .data          0x0000000010033400        0x0 /Users/yeonwoo-kim/HealthHub/nacl_sdk/pepper_49/toolchain/mac_pnacl/bin/../x86_64-nacl/lib32/crtn.o

.data1
 *(.data1)
                0x0000000010033400                _edata = .
                0x0000000010033400                PROVIDE (edata, .)
                0x0000000010033400                . = .
                0x0000000010033400                __bss_start = .

.bss            0x0000000010033400     0x165c
 *(.dynbss)
 *(.bss .bss.* .gnu.linkonce.b.*)
 .bss           0x0000000010033400        0x0 /Users/yeonwoo-kim/HealthHub/nacl_sdk/pepper_49/toolchain/mac_pnacl/bin/../x86_64-nacl/lib32/crti.o
 .bss           0x0000000010033400       0x48 /Users/yeonwoo-kim/HealthHub/nacl_sdk/pepper_49/toolchain/mac_pnacl/bin/../lib/clang/3.7.0/lib/i686-nacl/crtbeginT.o
                0x0000000010033400                __dso_handle
 .bss           0x0000000010033448       0x10 clang-newlib/Release/debugging_x86_32.o
                0x0000000010033448                ppb_messaging_interface
                0x000000001003344c                ppb_var_interface
                0x0000000010033450                ppb_core_interface
                0x0000000010033454                g_CrashTime
 .bss           0x0000000010033458       0x18 /Users/yeonwoo-kim/HealthHub/nacl_sdk/pepper_49/lib/clang-newlib_x86_32/Release/liberror_handling.a(error_handling_x86_32.o)
 .bss           0x0000000010033470        0x0 /Users/yeonwoo-kim/HealthHub/nacl_sdk/pepper_49/lib/clang-newlib_x86_32/Release/liberror_handling.a(string_stream_x86_32.o)
 .bss           0x0000000010033470        0x0 /Users/yeonwoo-kim/HealthHub/nacl_sdk/pepper_49/toolchain/mac_pnacl/bin/../x86_64-nacl/lib32/libppapi_stub.a(plugin_main_irt_21ce9d26.o)
 .bss           0x0000000010033470        0x0 /Users/yeonwoo-kim/HealthHub/nacl_sdk/pepper_49/toolchain/mac_pnacl/bin/../x86_64-nacl/lib32/libppapi_stub.a(ppapi_plugin_main_399d0cf7.o)
 .bss           0x0000000010033470        0x0 /Users/yeonwoo-kim/HealthHub/nacl_sdk/pepper_49/toolchain/mac_pnacl/bin/../x86_64-nacl/lib32/libppapi_stub.a(ppapi_plugin_start_8da67623.o)
 .bss           0x0000000010033470        0x0 /Users/yeonwoo-kim/HealthHub/nacl_sdk/pepper_49/toolchain/mac_pnacl/bin/../x86_64-nacl/lib32/libppapi_stub.a(thread_creator_ccf263e1.o)
 .bss           0x0000000010033470     0x1008 /Users/yeonwoo-kim/HealthHub/nacl_sdk/pepper_49/toolchain/mac_pnacl/bin/../x86_64-nacl/lib32/libpthread.a(nc_thread.o)
 .bss           0x0000000010034478        0x0 /Users/yeonwoo-kim/HealthHub/nacl_sdk/pepper_49/toolchain/mac_pnacl/bin/../x86_64-nacl/lib32/libpthread.a(nc_mutex.o)
 .bss           0x0000000010034478        0x0 /Users/yeonwoo-kim/HealthHub/nacl_sdk/pepper_49/toolchain/mac_pnacl/bin/../x86_64-nacl/lib32/libpthread.a(nc_condvar.o)
 .bss           0x0000000010034478        0x0 /Users/yeonwoo-kim/HealthHub/nacl_sdk/pepper_49/toolchain/mac_pnacl/bin/../x86_64-nacl/lib32/libpthread.a(valgrind_annotations.o)
 .bss           0x0000000010034478        0x0 /Users/yeonwoo-kim/HealthHub/nacl_sdk/pepper_49/toolchain/mac_pnacl/bin/../x86_64-nacl/lib32/libpthread.a(nc_init_irt.o)
 .bss           0x0000000010034478        0x0 /Users/yeonwoo-kim/HealthHub/nacl_sdk/pepper_49/toolchain/mac_pnacl/bin/../x86_64-nacl/lib32/libnacl.a(nacl_irt.o)
 .bss           0x0000000010034478        0x0 /Users/yeonwoo-kim/HealthHub/nacl_sdk/pepper_49/toolchain/mac_pnacl/bin/../x86_64-nacl/lib32/libnacl.a(_exit.o)
 .bss           0x0000000010034478        0x0 /Users/yeonwoo-kim/HealthHub/nacl_sdk/pepper_49/toolchain/mac_pnacl/bin/../x86_64-nacl/lib32/libnacl.a(mmap.o)
 .bss           0x0000000010034478        0x0 /Users/yeonwoo-kim/HealthHub/nacl_sdk/pepper_49/toolchain/mac_pnacl/bin/../x86_64-nacl/lib32/libnacl.a(munmap.o)
 .bss           0x0000000010034478        0x0 /Users/yeonwoo-kim/HealthHub/nacl_sdk/pepper_49/toolchain/mac_pnacl/bin/../x86_64-nacl/lib32/libnacl.a(nacl_interface_query.o)
 .bss           0x0000000010034478        0x0 /Users/yeonwoo-kim/HealthHub/nacl_sdk/pepper_49/toolchain/mac_pnacl/bin/../x86_64-nacl/lib32/libnacl.a(write.o)
 .bss           0x0000000010034478        0x4 /Users/yeonwoo-kim/HealthHub/nacl_sdk/pepper_49/toolchain/mac_pnacl/bin/../x86_64-nacl/lib32/libnacl.a(environ.o)
 .bss           0x000000001003447c      0x1f8 /Users/yeonwoo-kim/HealthHub/nacl_sdk/pepper_49/toolchain/mac_pnacl/bin/../x86_64-nacl/lib32/libnacl.a(malloc.o)
 .bss           0x0000000010034674        0x0 /Users/yeonwoo-kim/HealthHub/nacl_sdk/pepper_49/toolchain/mac_pnacl/bin/../x86_64-nacl/lib32/libnacl.a(start.o)
 .bss           0x0000000010034674        0x0 /Users/yeonwoo-kim/HealthHub/nacl_sdk/pepper_49/toolchain/mac_pnacl/bin/../x86_64-nacl/lib32/libnacl.a(nacl_read_tp.o)
 .bss           0x0000000010034674        0x0 /Users/yeonwoo-kim/HealthHub/nacl_sdk/pepper_49/toolchain/mac_pnacl/bin/../x86_64-nacl/lib32/libnacl.a(pthread_initialize_minimal.o)
 .bss           0x0000000010034674       0x10 /Users/yeonwoo-kim/HealthHub/nacl_sdk/pepper_49/toolchain/mac_pnacl/bin/../x86_64-nacl/lib32/libnacl.a(tls.o)
 .bss           0x0000000010034684        0x0 /Users/yeonwoo-kim/HealthHub/nacl_sdk/pepper_49/toolchain/mac_pnacl/bin/../x86_64-nacl/lib32/libnacl.a(nacl_irt_init.o)
 .bss           0x0000000010034684        0x0 /Users/yeonwoo-kim/HealthHub/nacl_sdk/pepper_49/toolchain/mac_pnacl/bin/../x86_64-nacl/lib32/libnacl.a(nacl_tls_get.o)
 .bss           0x0000000010034684        0x0 /Users/yeonwoo-kim/HealthHub/nacl_sdk/pepper_49/toolchain/mac_pnacl/bin/../x86_64-nacl/lib32/libnacl.a(nacl_tls_init.o)
 .bss           0x0000000010034684        0x0 /Users/yeonwoo-kim/HealthHub/nacl_sdk/pepper_49/toolchain/mac_pnacl/bin/../x86_64-nacl/lib32/libnacl.a(abort.o)
 .bss           0x0000000010034684        0x0 /Users/yeonwoo-kim/HealthHub/nacl_sdk/pepper_49/toolchain/mac_pnacl/bin/../x86_64-nacl/lib32/libnacl.a(sched_yield.o)
 .bss           0x0000000010034684        0x0 /Users/yeonwoo-kim/HealthHub/nacl_sdk/pepper_49/toolchain/mac_pnacl/bin/../x86_64-nacl/lib32/libnacl.a(sysconf.o)
 .bss           0x0000000010034684        0x0 /Users/yeonwoo-kim/HealthHub/nacl_sdk/pepper_49/toolchain/mac_pnacl/bin/../x86_64-nacl/lib32/libcrt_common.a(lib_a-atexit.o)
 .bss           0x0000000010034684        0x0 /Users/yeonwoo-kim/HealthHub/nacl_sdk/pepper_49/toolchain/mac_pnacl/bin/../x86_64-nacl/lib32/libcrt_common.a(lib_a-errno.o)
 .bss           0x0000000010034684        0x0 /Users/yeonwoo-kim/HealthHub/nacl_sdk/pepper_49/toolchain/mac_pnacl/bin/../x86_64-nacl/lib32/libcrt_common.a(lib_a-exit.o)
 .bss           0x0000000010034684        0x0 /Users/yeonwoo-kim/HealthHub/nacl_sdk/pepper_49/toolchain/mac_pnacl/bin/../x86_64-nacl/lib32/libcrt_common.a(lib_a-fflush.o)
 .bss           0x0000000010034684        0x0 /Users/yeonwoo-kim/HealthHub/nacl_sdk/pepper_49/toolchain/mac_pnacl/bin/../x86_64-nacl/lib32/libcrt_common.a(lib_a-findfp.o)
 .bss           0x0000000010034684        0x0 /Users/yeonwoo-kim/HealthHub/nacl_sdk/pepper_49/toolchain/mac_pnacl/bin/../x86_64-nacl/lib32/libcrt_common.a(lib_a-fini.o)
 .bss           0x0000000010034684        0x0 /Users/yeonwoo-kim/HealthHub/nacl_sdk/pepper_49/toolchain/mac_pnacl/bin/../x86_64-nacl/lib32/libcrt_common.a(lib_a-fprintf.o)
 .bss           0x0000000010034684        0x0 /Users/yeonwoo-kim/HealthHub/nacl_sdk/pepper_49/toolchain/mac_pnacl/bin/../x86_64-nacl/lib32/libcrt_common.a(lib_a-fwalk.o)
 .bss           0x0000000010034684        0x0 /Users/yeonwoo-kim/HealthHub/nacl_sdk/pepper_49/toolchain/mac_pnacl/bin/../x86_64-nacl/lib32/libcrt_common.a(lib_a-fwrite.o)
 .bss           0x0000000010034684        0x0 /Users/yeonwoo-kim/HealthHub/nacl_sdk/pepper_49/toolchain/mac_pnacl/bin/../x86_64-nacl/lib32/libcrt_common.a(lib_a-getenv.o)
 .bss           0x0000000010034684        0x0 /Users/yeonwoo-kim/HealthHub/nacl_sdk/pepper_49/toolchain/mac_pnacl/bin/../x86_64-nacl/lib32/libcrt_common.a(lib_a-getenv_r.o)
 .bss           0x0000000010034684        0x0 /Users/yeonwoo-kim/HealthHub/nacl_sdk/pepper_49/toolchain/mac_pnacl/bin/../x86_64-nacl/lib32/libcrt_common.a(lib_a-impure.o)
 .bss           0x0000000010034684        0x0 /Users/yeonwoo-kim/HealthHub/nacl_sdk/pepper_49/toolchain/mac_pnacl/bin/../x86_64-nacl/lib32/libcrt_common.a(lib_a-init.o)
 .bss           0x0000000010034684        0x0 /Users/yeonwoo-kim/HealthHub/nacl_sdk/pepper_49/toolchain/mac_pnacl/bin/../x86_64-nacl/lib32/libcrt_common.a(lib_a-memcpy.o)
 .bss           0x0000000010034684        0x0 /Users/yeonwoo-kim/HealthHub/nacl_sdk/pepper_49/toolchain/mac_pnacl/bin/../x86_64-nacl/lib32/libcrt_common.a(lib_a-memset.o)
 .bss           0x0000000010034684        0x0 /Users/yeonwoo-kim/HealthHub/nacl_sdk/pepper_49/toolchain/mac_pnacl/bin/../x86_64-nacl/lib32/libcrt_common.a(lib_a-sleep.o)
 .bss           0x0000000010034684        0x0 /Users/yeonwoo-kim/HealthHub/nacl_sdk/pepper_49/toolchain/mac_pnacl/bin/../x86_64-nacl/lib32/libcrt_common.a(lib_a-stdio.o)
 .bss           0x0000000010034684        0x0 /Users/yeonwoo-kim/HealthHub/nacl_sdk/pepper_49/toolchain/mac_pnacl/bin/../x86_64-nacl/lib32/libcrt_common.a(lib_a-strcat.o)
 .bss           0x0000000010034684        0x0 /Users/yeonwoo-kim/HealthHub/nacl_sdk/pepper_49/toolchain/mac_pnacl/bin/../x86_64-nacl/lib32/libcrt_common.a(lib_a-strcmp.o)
 .bss           0x0000000010034684        0x0 /Users/yeonwoo-kim/HealthHub/nacl_sdk/pepper_49/toolchain/mac_pnacl/bin/../x86_64-nacl/lib32/libcrt_common.a(lib_a-strcpy.o)
 .bss           0x0000000010034684        0x0 /Users/yeonwoo-kim/HealthHub/nacl_sdk/pepper_49/toolchain/mac_pnacl/bin/../x86_64-nacl/lib32/libcrt_common.a(lib_a-strlen.o)
 .bss           0x0000000010034684        0x0 /Users/yeonwoo-kim/HealthHub/nacl_sdk/pepper_49/toolchain/mac_pnacl/bin/../x86_64-nacl/lib32/libcrt_common.a(lib_a-strncmp.o)
 .bss           0x0000000010034684        0x0 /Users/yeonwoo-kim/HealthHub/nacl_sdk/pepper_49/toolchain/mac_pnacl/bin/../x86_64-nacl/lib32/libcrt_common.a(lib_a-vfprintf.o)
 .bss           0x0000000010034684        0x0 /Users/yeonwoo-kim/HealthHub/nacl_sdk/pepper_49/toolchain/mac_pnacl/bin/../x86_64-nacl/lib32/libcrt_common.a(lib_a-vsnprintf.o)
 .bss           0x0000000010034684        0x0 /Users/yeonwoo-kim/HealthHub/nacl_sdk/pepper_49/toolchain/mac_pnacl/bin/../x86_64-nacl/lib32/libcrt_common.a(lib_a-vsprintf.o)
 .bss           0x0000000010034684        0x0 /Users/yeonwoo-kim/HealthHub/nacl_sdk/pepper_49/toolchain/mac_pnacl/bin/../x86_64-nacl/lib32/libcrt_common.a(lib_a-wcrtomb.o)
 .bss           0x0000000010034684        0x0 /Users/yeonwoo-kim/HealthHub/nacl_sdk/pepper_49/toolchain/mac_pnacl/bin/../x86_64-nacl/lib32/libcrt_common.a(lib_a-wcsrtombs.o)
 .bss           0x0000000010034684        0x0 /Users/yeonwoo-kim/HealthHub/nacl_sdk/pepper_49/toolchain/mac_pnacl/bin/../x86_64-nacl/lib32/libcrt_common.a(lib_a-wctomb_r.o)
 .bss           0x0000000010034684        0x0 /Users/yeonwoo-kim/HealthHub/nacl_sdk/pepper_49/toolchain/mac_pnacl/bin/../x86_64-nacl/lib32/libcrt_common.a(lib_a-wsetup.o)
 .bss           0x0000000010034684        0x0 /Users/yeonwoo-kim/HealthHub/nacl_sdk/pepper_49/toolchain/mac_pnacl/bin/../x86_64-nacl/lib32/libcrt_common.a(lib_a-__atexit.o)
 .bss           0x0000000010034684        0x0 /Users/yeonwoo-kim/HealthHub/nacl_sdk/pepper_49/toolchain/mac_pnacl/bin/../x86_64-nacl/lib32/libcrt_common.a(lib_a-__call_atexit.o)
 .bss           0x0000000010034684        0x0 /Users/yeonwoo-kim/HealthHub/nacl_sdk/pepper_49/toolchain/mac_pnacl/bin/../x86_64-nacl/lib32/libcrt_common.a(lib_a-dtoa.o)
 .bss           0x0000000010034684        0x0 /Users/yeonwoo-kim/HealthHub/nacl_sdk/pepper_49/toolchain/mac_pnacl/bin/../x86_64-nacl/lib32/libcrt_common.a(lib_a-envlock.o)
 .bss           0x0000000010034684        0x0 /Users/yeonwoo-kim/HealthHub/nacl_sdk/pepper_49/toolchain/mac_pnacl/bin/../x86_64-nacl/lib32/libcrt_common.a(lib_a-fclose.o)
 .bss           0x0000000010034684        0x0 /Users/yeonwoo-kim/HealthHub/nacl_sdk/pepper_49/toolchain/mac_pnacl/bin/../x86_64-nacl/lib32/libcrt_common.a(lib_a-fvwrite.o)
 .bss           0x0000000010034684      0x2ab /Users/yeonwoo-kim/HealthHub/nacl_sdk/pepper_49/toolchain/mac_pnacl/bin/../x86_64-nacl/lib32/libcrt_common.a(lib_a-locale.o)
 *fill*         0x000000001003492f        0x1 
 .bss.__nlocale_changed
                0x0000000010034930        0x4 /Users/yeonwoo-kim/HealthHub/nacl_sdk/pepper_49/toolchain/mac_pnacl/bin/../x86_64-nacl/lib32/libcrt_common.a(lib_a-locale.o)
                0x0000000010034930                __nlocale_changed
 .bss.__mlocale_changed
                0x0000000010034934        0x4 /Users/yeonwoo-kim/HealthHub/nacl_sdk/pepper_49/toolchain/mac_pnacl/bin/../x86_64-nacl/lib32/libcrt_common.a(lib_a-locale.o)
                0x0000000010034934                __mlocale_changed
 .bss._PathLocale
                0x0000000010034938        0x4 /Users/yeonwoo-kim/HealthHub/nacl_sdk/pepper_49/toolchain/mac_pnacl/bin/../x86_64-nacl/lib32/libcrt_common.a(lib_a-locale.o)
                0x0000000010034938                _PathLocale
 .bss           0x000000001003493c        0x0 /Users/yeonwoo-kim/HealthHub/nacl_sdk/pepper_49/toolchain/mac_pnacl/bin/../x86_64-nacl/lib32/libcrt_common.a(lib_a-makebuf.o)
 .bss           0x000000001003493c        0x0 /Users/yeonwoo-kim/HealthHub/nacl_sdk/pepper_49/toolchain/mac_pnacl/bin/../x86_64-nacl/lib32/libcrt_common.a(lib_a-mbtowc_r.o)
 .bss           0x000000001003493c        0x0 /Users/yeonwoo-kim/HealthHub/nacl_sdk/pepper_49/toolchain/mac_pnacl/bin/../x86_64-nacl/lib32/libcrt_common.a(lib_a-memchr.o)
 .bss           0x000000001003493c        0x0 /Users/yeonwoo-kim/HealthHub/nacl_sdk/pepper_49/toolchain/mac_pnacl/bin/../x86_64-nacl/lib32/libcrt_common.a(lib_a-memmove.o)
 .bss           0x000000001003493c        0x0 /Users/yeonwoo-kim/HealthHub/nacl_sdk/pepper_49/toolchain/mac_pnacl/bin/../x86_64-nacl/lib32/libcrt_common.a(lib_a-mprec.o)
 .bss           0x000000001003493c        0x0 /Users/yeonwoo-kim/HealthHub/nacl_sdk/pepper_49/toolchain/mac_pnacl/bin/../x86_64-nacl/lib32/libcrt_common.a(lib_a-s_fpclassify.o)
 .bss           0x000000001003493c        0x0 /Users/yeonwoo-kim/HealthHub/nacl_sdk/pepper_49/toolchain/mac_pnacl/bin/../x86_64-nacl/lib32/libcrt_common.a(lib_a-s_frexp.o)
 .bss           0x000000001003493c        0x0 /Users/yeonwoo-kim/HealthHub/nacl_sdk/pepper_49/toolchain/mac_pnacl/bin/../x86_64-nacl/lib32/libcrt_common.a(lib_a-strcasecmp.o)
 .bss           0x000000001003493c        0x0 /Users/yeonwoo-kim/HealthHub/nacl_sdk/pepper_49/toolchain/mac_pnacl/bin/../x86_64-nacl/lib32/libcrt_common.a(lib_a-strchr.o)
 .bss           0x000000001003493c        0x0 /Users/yeonwoo-kim/HealthHub/nacl_sdk/pepper_49/toolchain/mac_pnacl/bin/../x86_64-nacl/lib32/libcrt_common.a(lib_a-strlcpy.o)
 .bss           0x000000001003493c        0x0 /Users/yeonwoo-kim/HealthHub/nacl_sdk/pepper_49/toolchain/mac_pnacl/bin/../x86_64-nacl/lib32/libcrt_common.a(lib_a-strncasecmp.o)
 .bss           0x000000001003493c        0x0 /Users/yeonwoo-kim/HealthHub/nacl_sdk/pepper_49/toolchain/mac_pnacl/bin/../x86_64-nacl/lib32/libcrt_common.a(lib_a-strncpy.o)
 .bss           0x000000001003493c        0x0 /Users/yeonwoo-kim/HealthHub/nacl_sdk/pepper_49/toolchain/mac_pnacl/bin/../x86_64-nacl/lib32/libcrt_common.a(lib_a-strtol.o)
 .bss           0x000000001003493c        0x0 /Users/yeonwoo-kim/HealthHub/nacl_sdk/pepper_49/toolchain/mac_pnacl/bin/../x86_64-nacl/lib32/libcrt_common.a(lib_a-svfprintf.o)
 .bss           0x000000001003493c        0x0 /Users/yeonwoo-kim/HealthHub/nacl_sdk/pepper_49/toolchain/mac_pnacl/bin/../x86_64-nacl/lib32/libcrt_common.a(lib_a-vfiprintf.o)
 .bss           0x000000001003493c        0x0 /Users/yeonwoo-kim/HealthHub/nacl_sdk/pepper_49/toolchain/mac_pnacl/bin/../x86_64-nacl/lib32/libcrt_common.a(lib_a-wcsnrtombs.o)
 .bss           0x000000001003493c        0x0 /Users/yeonwoo-kim/HealthHub/nacl_sdk/pepper_49/toolchain/mac_pnacl/bin/../x86_64-nacl/lib32/libcrt_common.a(lib_a-ctype_.o)
 .bss           0x000000001003493c        0x0 /Users/yeonwoo-kim/HealthHub/nacl_sdk/pepper_49/toolchain/mac_pnacl/bin/../x86_64-nacl/lib32/libcrt_common.a(lib_a-fputwc.o)
 .bss           0x000000001003493c        0x0 /Users/yeonwoo-kim/HealthHub/nacl_sdk/pepper_49/toolchain/mac_pnacl/bin/../x86_64-nacl/lib32/libcrt_common.a(lib_a-svfiprintf.o)
 .bss           0x000000001003493c        0x0 /Users/yeonwoo-kim/HealthHub/nacl_sdk/pepper_49/toolchain/mac_pnacl/bin/../x86_64-nacl/lib32/libcrt_common.a(lib_a-wbuf.o)
 .bss           0x000000001003493c        0x0 /Users/yeonwoo-kim/HealthHub/nacl_sdk/pepper_49/toolchain/mac_pnacl/bin/../x86_64-nacl/lib32/libnacl.a(close.o)
 .bss           0x000000001003493c        0x0 /Users/yeonwoo-kim/HealthHub/nacl_sdk/pepper_49/toolchain/mac_pnacl/bin/../x86_64-nacl/lib32/libnacl.a(fstat.o)
 .bss           0x000000001003493c        0x0 /Users/yeonwoo-kim/HealthHub/nacl_sdk/pepper_49/toolchain/mac_pnacl/bin/../x86_64-nacl/lib32/libnacl.a(isatty.o)
 .bss           0x000000001003493c        0x0 /Users/yeonwoo-kim/HealthHub/nacl_sdk/pepper_49/toolchain/mac_pnacl/bin/../x86_64-nacl/lib32/libnacl.a(lseek.o)
 .bss           0x000000001003493c        0x0 /Users/yeonwoo-kim/HealthHub/nacl_sdk/pepper_49/toolchain/mac_pnacl/bin/../x86_64-nacl/lib32/libnacl.a(nanosleep.o)
 .bss           0x000000001003493c        0x0 /Users/yeonwoo-kim/HealthHub/nacl_sdk/pepper_49/toolchain/mac_pnacl/bin/../x86_64-nacl/lib32/libnacl.a(nacl_irt_fdio.o)
 .bss           0x000000001003493c        0x0 /Users/yeonwoo-kim/HealthHub/nacl_sdk/pepper_49/toolchain/mac_pnacl/bin/../x86_64-nacl/lib32/libnacl.a(read.o)
 .bss           0x000000001003493c        0x0 /Users/yeonwoo-kim/HealthHub/nacl_sdk/pepper_49/toolchain/mac_pnacl/bin/../lib/clang/3.7.0/lib/i686-nacl/libgcc.a(udivdi3.o)
 .bss           0x000000001003493c        0x0 /Users/yeonwoo-kim/HealthHub/nacl_sdk/pepper_49/toolchain/mac_pnacl/bin/../lib/clang/3.7.0/lib/i686-nacl/libgcc.a(udivmoddi4.o)
 .bss           0x000000001003493c        0x0 /Users/yeonwoo-kim/HealthHub/nacl_sdk/pepper_49/toolchain/mac_pnacl/bin/../lib/clang/3.7.0/lib/i686-nacl/libgcc.a(umoddi3.o)
 .bss           0x000000001003493c       0x14 /Users/yeonwoo-kim/HealthHub/nacl_sdk/pepper_49/toolchain/mac_pnacl/bin/../lib/clang/3.7.0/lib/i686-nacl/libgcc_eh.a(unwind-dw2-fde-glibc.o)
 .bss           0x0000000010034950        0x0 /Users/yeonwoo-kim/HealthHub/nacl_sdk/pepper_49/toolchain/mac_pnacl/bin/../lib/clang/3.7.0/lib/i686-nacl/crtend.o
 .bss           0x0000000010034950        0x0 /Users/yeonwoo-kim/HealthHub/nacl_sdk/pepper_49/toolchain/mac_pnacl/bin/../x86_64-nacl/lib32/crtn.o
 *(COMMON)
 COMMON         0x0000000010034950        0xc clang-newlib/Release/debugging_x86_32.o
                0x0000000010034950                g_PPAPIThread
                0x0000000010034954                g_Instance
                0x0000000010034958                g_NexeThread
 COMMON         0x000000001003495c       0x40 /Users/yeonwoo-kim/HealthHub/nacl_sdk/pepper_49/toolchain/mac_pnacl/bin/../x86_64-nacl/lib32/libpthread.a(nc_thread.o)
                0x000000001003495c                __nc_thread_initialized
                0x0000000010034960                __nc_thread_management_lock
                0x0000000010034974                __nc_memory_block_counter
                0x000000001003497c                __nc_initial_thread_id
                0x0000000010034980                __nc_thread_memory_blocks
                0x0000000010034990                __libnacl_irt_thread
 COMMON         0x000000001003499c        0x8 /Users/yeonwoo-kim/HealthHub/nacl_sdk/pepper_49/toolchain/mac_pnacl/bin/../x86_64-nacl/lib32/libpthread.a(nc_init_irt.o)
                0x000000001003499c                __libnacl_irt_futex
 COMMON         0x00000000100349a4       0xb4 /Users/yeonwoo-kim/HealthHub/nacl_sdk/pepper_49/toolchain/mac_pnacl/bin/../x86_64-nacl/lib32/libnacl.a(nacl_irt.o)
                0x00000000100349a4                __nacl_irt_query
                0x00000000100349a8                __libnacl_irt_dev_filename
                0x00000000100349e8                __libnacl_irt_clock
                0x00000000100349f0                __libnacl_irt_memory
                0x00000000100349fc                __libnacl_irt_dev_fdio
                0x0000000010034a34                __libnacl_irt_basic
                0x0000000010034a4c                __libnacl_irt_tls
                0x0000000010034a54                __libnacl_irt_dev_getpid
 COMMON         0x0000000010034a58        0x4 /Users/yeonwoo-kim/HealthHub/nacl_sdk/pepper_49/toolchain/mac_pnacl/bin/../x86_64-nacl/lib32/libnacl.a(start.o)
                0x0000000010034a58                __nacl_initial_thread_stack_end
                0x0000000010034a5c                . = ALIGN ((. != 0x0)?0x4:0x1)
                0x0000000010034a5c                . = ALIGN (0x4)
                0x0000000010034a5c                . = SEGMENT_START ("ldata-segment", .)
                0x0000000010034a5c                . = ALIGN (0x4)
                0x0000000010034a5c                _end = .
                0x0000000010034a5c                PROVIDE (end, .)
                0x0000000010034a5c                . = DATA_SEGMENT_END (.)

.stab
 *(.stab)

.stabstr
 *(.stabstr)

.stab.excl
 *(.stab.excl)

.stab.exclstr
 *(.stab.exclstr)

.stab.index
 *(.stab.index)

.stab.indexstr
 *(.stab.indexstr)

.comment        0x0000000000000000      0x175
 *(.comment)
 .comment       0x0000000000000000       0xed /Users/yeonwoo-kim/HealthHub/nacl_sdk/pepper_49/toolchain/mac_pnacl/bin/../lib/clang/3.7.0/lib/i686-nacl/crtbeginT.o
                                         0xee (size before relaxing)
 .comment       0x0000000000000000       0xee clang-newlib/Release/debugging_x86_32.o
 .comment       0x0000000000000000       0xee /Users/yeonwoo-kim/HealthHub/nacl_sdk/pepper_49/lib/clang-newlib_x86_32/Release/liberror_handling.a(error_handling_x86_32.o)
 .comment       0x0000000000000000       0xee /Users/yeonwoo-kim/HealthHub/nacl_sdk/pepper_49/lib/clang-newlib_x86_32/Release/liberror_handling.a(string_stream_x86_32.o)
 .comment       0x0000000000000000       0xee /Users/yeonwoo-kim/HealthHub/nacl_sdk/pepper_49/toolchain/mac_pnacl/bin/../x86_64-nacl/lib32/libppapi_stub.a(plugin_main_irt_21ce9d26.o)
 .comment       0x0000000000000000       0xee /Users/yeonwoo-kim/HealthHub/nacl_sdk/pepper_49/toolchain/mac_pnacl/bin/../x86_64-nacl/lib32/libppapi_stub.a(ppapi_plugin_main_399d0cf7.o)
 .comment       0x0000000000000000       0xee /Users/yeonwoo-kim/HealthHub/nacl_sdk/pepper_49/toolchain/mac_pnacl/bin/../x86_64-nacl/lib32/libppapi_stub.a(ppapi_plugin_start_8da67623.o)
 .comment       0x0000000000000000       0xee /Users/yeonwoo-kim/HealthHub/nacl_sdk/pepper_49/toolchain/mac_pnacl/bin/../x86_64-nacl/lib32/libppapi_stub.a(thread_creator_ccf263e1.o)
 .comment       0x0000000000000000       0xee /Users/yeonwoo-kim/HealthHub/nacl_sdk/pepper_49/toolchain/mac_pnacl/bin/../x86_64-nacl/lib32/libpthread.a(nc_thread.o)
 .comment       0x0000000000000000       0xee /Users/yeonwoo-kim/HealthHub/nacl_sdk/pepper_49/toolchain/mac_pnacl/bin/../x86_64-nacl/lib32/libpthread.a(nc_mutex.o)
 .comment       0x0000000000000000       0xee /Users/yeonwoo-kim/HealthHub/nacl_sdk/pepper_49/toolchain/mac_pnacl/bin/../x86_64-nacl/lib32/libpthread.a(nc_condvar.o)
 .comment       0x0000000000000000       0xee /Users/yeonwoo-kim/HealthHub/nacl_sdk/pepper_49/toolchain/mac_pnacl/bin/../x86_64-nacl/lib32/libpthread.a(valgrind_annotations.o)
 .comment       0x0000000000000000       0xee /Users/yeonwoo-kim/HealthHub/nacl_sdk/pepper_49/toolchain/mac_pnacl/bin/../x86_64-nacl/lib32/libpthread.a(nc_init_irt.o)
 .comment       0x0000000000000000       0xee /Users/yeonwoo-kim/HealthHub/nacl_sdk/pepper_49/toolchain/mac_pnacl/bin/../x86_64-nacl/lib32/libnacl.a(nacl_irt.o)
 .comment       0x0000000000000000       0xee /Users/yeonwoo-kim/HealthHub/nacl_sdk/pepper_49/toolchain/mac_pnacl/bin/../x86_64-nacl/lib32/libnacl.a(_exit.o)
 .comment       0x0000000000000000       0xee /Users/yeonwoo-kim/HealthHub/nacl_sdk/pepper_49/toolchain/mac_pnacl/bin/../x86_64-nacl/lib32/libnacl.a(mmap.o)
 .comment       0x0000000000000000       0xee /Users/yeonwoo-kim/HealthHub/nacl_sdk/pepper_49/toolchain/mac_pnacl/bin/../x86_64-nacl/lib32/libnacl.a(munmap.o)
 .comment       0x0000000000000000       0xee /Users/yeonwoo-kim/HealthHub/nacl_sdk/pepper_49/toolchain/mac_pnacl/bin/../x86_64-nacl/lib32/libnacl.a(nacl_interface_query.o)
 .comment       0x0000000000000000       0xee /Users/yeonwoo-kim/HealthHub/nacl_sdk/pepper_49/toolchain/mac_pnacl/bin/../x86_64-nacl/lib32/libnacl.a(write.o)
 .comment       0x0000000000000000       0xee /Users/yeonwoo-kim/HealthHub/nacl_sdk/pepper_49/toolchain/mac_pnacl/bin/../x86_64-nacl/lib32/libnacl.a(environ.o)
 .comment       0x0000000000000000       0xee /Users/yeonwoo-kim/HealthHub/nacl_sdk/pepper_49/toolchain/mac_pnacl/bin/../x86_64-nacl/lib32/libnacl.a(malloc.o)
 .comment       0x0000000000000000       0xee /Users/yeonwoo-kim/HealthHub/nacl_sdk/pepper_49/toolchain/mac_pnacl/bin/../x86_64-nacl/lib32/libnacl.a(start.o)
 .comment       0x0000000000000000       0xee /Users/yeonwoo-kim/HealthHub/nacl_sdk/pepper_49/toolchain/mac_pnacl/bin/../x86_64-nacl/lib32/libnacl.a(nacl_read_tp.o)
 .comment       0x0000000000000000       0xee /Users/yeonwoo-kim/HealthHub/nacl_sdk/pepper_49/toolchain/mac_pnacl/bin/../x86_64-nacl/lib32/libnacl.a(pthread_initialize_minimal.o)
 .comment       0x0000000000000000       0xee /Users/yeonwoo-kim/HealthHub/nacl_sdk/pepper_49/toolchain/mac_pnacl/bin/../x86_64-nacl/lib32/libnacl.a(tls.o)
 .comment       0x0000000000000000       0xee /Users/yeonwoo-kim/HealthHub/nacl_sdk/pepper_49/toolchain/mac_pnacl/bin/../x86_64-nacl/lib32/libnacl.a(nacl_irt_init.o)
 .comment       0x0000000000000000       0xee /Users/yeonwoo-kim/HealthHub/nacl_sdk/pepper_49/toolchain/mac_pnacl/bin/../x86_64-nacl/lib32/libnacl.a(nacl_tls_get.o)
 .comment       0x0000000000000000       0xee /Users/yeonwoo-kim/HealthHub/nacl_sdk/pepper_49/toolchain/mac_pnacl/bin/../x86_64-nacl/lib32/libnacl.a(nacl_tls_init.o)
 .comment       0x0000000000000000       0xee /Users/yeonwoo-kim/HealthHub/nacl_sdk/pepper_49/toolchain/mac_pnacl/bin/../x86_64-nacl/lib32/libnacl.a(abort.o)
 .comment       0x0000000000000000       0xee /Users/yeonwoo-kim/HealthHub/nacl_sdk/pepper_49/toolchain/mac_pnacl/bin/../x86_64-nacl/lib32/libnacl.a(sched_yield.o)
 .comment       0x0000000000000000       0xee /Users/yeonwoo-kim/HealthHub/nacl_sdk/pepper_49/toolchain/mac_pnacl/bin/../x86_64-nacl/lib32/libnacl.a(sysconf.o)
 .comment       0x0000000000000000       0xee /Users/yeonwoo-kim/HealthHub/nacl_sdk/pepper_49/toolchain/mac_pnacl/bin/../x86_64-nacl/lib32/libcrt_common.a(lib_a-atexit.o)
 .comment       0x0000000000000000       0xee /Users/yeonwoo-kim/HealthHub/nacl_sdk/pepper_49/toolchain/mac_pnacl/bin/../x86_64-nacl/lib32/libcrt_common.a(lib_a-errno.o)
 .comment       0x0000000000000000       0xee /Users/yeonwoo-kim/HealthHub/nacl_sdk/pepper_49/toolchain/mac_pnacl/bin/../x86_64-nacl/lib32/libcrt_common.a(lib_a-exit.o)
 .comment       0x0000000000000000       0xee /Users/yeonwoo-kim/HealthHub/nacl_sdk/pepper_49/toolchain/mac_pnacl/bin/../x86_64-nacl/lib32/libcrt_common.a(lib_a-fflush.o)
 .comment       0x0000000000000000       0xee /Users/yeonwoo-kim/HealthHub/nacl_sdk/pepper_49/toolchain/mac_pnacl/bin/../x86_64-nacl/lib32/libcrt_common.a(lib_a-findfp.o)
 .comment       0x0000000000000000       0xee /Users/yeonwoo-kim/HealthHub/nacl_sdk/pepper_49/toolchain/mac_pnacl/bin/../x86_64-nacl/lib32/libcrt_common.a(lib_a-fini.o)
 .comment       0x0000000000000000       0xee /Users/yeonwoo-kim/HealthHub/nacl_sdk/pepper_49/toolchain/mac_pnacl/bin/../x86_64-nacl/lib32/libcrt_common.a(lib_a-fprintf.o)
 .comment       0x0000000000000000       0xee /Users/yeonwoo-kim/HealthHub/nacl_sdk/pepper_49/toolchain/mac_pnacl/bin/../x86_64-nacl/lib32/libcrt_common.a(lib_a-fwalk.o)
 .comment       0x0000000000000000       0xee /Users/yeonwoo-kim/HealthHub/nacl_sdk/pepper_49/toolchain/mac_pnacl/bin/../x86_64-nacl/lib32/libcrt_common.a(lib_a-fwrite.o)
 .comment       0x0000000000000000       0xee /Users/yeonwoo-kim/HealthHub/nacl_sdk/pepper_49/toolchain/mac_pnacl/bin/../x86_64-nacl/lib32/libcrt_common.a(lib_a-getenv.o)
 .comment       0x0000000000000000       0xee /Users/yeonwoo-kim/HealthHub/nacl_sdk/pepper_49/toolchain/mac_pnacl/bin/../x86_64-nacl/lib32/libcrt_common.a(lib_a-getenv_r.o)
 .comment       0x0000000000000000       0xee /Users/yeonwoo-kim/HealthHub/nacl_sdk/pepper_49/toolchain/mac_pnacl/bin/../x86_64-nacl/lib32/libcrt_common.a(lib_a-impure.o)
 .comment       0x0000000000000000       0xee /Users/yeonwoo-kim/HealthHub/nacl_sdk/pepper_49/toolchain/mac_pnacl/bin/../x86_64-nacl/lib32/libcrt_common.a(lib_a-init.o)
 .comment       0x0000000000000000       0xee /Users/yeonwoo-kim/HealthHub/nacl_sdk/pepper_49/toolchain/mac_pnacl/bin/../x86_64-nacl/lib32/libcrt_common.a(lib_a-sleep.o)
 .comment       0x0000000000000000       0xee /Users/yeonwoo-kim/HealthHub/nacl_sdk/pepper_49/toolchain/mac_pnacl/bin/../x86_64-nacl/lib32/libcrt_common.a(lib_a-stdio.o)
 .comment       0x0000000000000000       0xee /Users/yeonwoo-kim/HealthHub/nacl_sdk/pepper_49/toolchain/mac_pnacl/bin/../x86_64-nacl/lib32/libcrt_common.a(lib_a-strcat.o)
 .comment       0x0000000000000000       0xee /Users/yeonwoo-kim/HealthHub/nacl_sdk/pepper_49/toolchain/mac_pnacl/bin/../x86_64-nacl/lib32/libcrt_common.a(lib_a-strcmp.o)
 .comment       0x0000000000000000       0xee /Users/yeonwoo-kim/HealthHub/nacl_sdk/pepper_49/toolchain/mac_pnacl/bin/../x86_64-nacl/lib32/libcrt_common.a(lib_a-strcpy.o)
 .comment       0x0000000000000000       0xee /Users/yeonwoo-kim/HealthHub/nacl_sdk/pepper_49/toolchain/mac_pnacl/bin/../x86_64-nacl/lib32/libcrt_common.a(lib_a-strncmp.o)
 .comment       0x0000000000000000       0xee /Users/yeonwoo-kim/HealthHub/nacl_sdk/pepper_49/toolchain/mac_pnacl/bin/../x86_64-nacl/lib32/libcrt_common.a(lib_a-vfprintf.o)
 .comment       0x0000000000000000       0xee /Users/yeonwoo-kim/HealthHub/nacl_sdk/pepper_49/toolchain/mac_pnacl/bin/../x86_64-nacl/lib32/libcrt_common.a(lib_a-vsnprintf.o)
 .comment       0x0000000000000000       0xee /Users/yeonwoo-kim/HealthHub/nacl_sdk/pepper_49/toolchain/mac_pnacl/bin/../x86_64-nacl/lib32/libcrt_common.a(lib_a-vsprintf.o)
 .comment       0x0000000000000000       0xee /Users/yeonwoo-kim/HealthHub/nacl_sdk/pepper_49/toolchain/mac_pnacl/bin/../x86_64-nacl/lib32/libcrt_common.a(lib_a-wcrtomb.o)
 .comment       0x0000000000000000       0xee /Users/yeonwoo-kim/HealthHub/nacl_sdk/pepper_49/toolchain/mac_pnacl/bin/../x86_64-nacl/lib32/libcrt_common.a(lib_a-wcsrtombs.o)
 .comment       0x0000000000000000       0xee /Users/yeonwoo-kim/HealthHub/nacl_sdk/pepper_49/toolchain/mac_pnacl/bin/../x86_64-nacl/lib32/libcrt_common.a(lib_a-wctomb_r.o)
 .comment       0x0000000000000000       0xee /Users/yeonwoo-kim/HealthHub/nacl_sdk/pepper_49/toolchain/mac_pnacl/bin/../x86_64-nacl/lib32/libcrt_common.a(lib_a-wsetup.o)
 .comment       0x0000000000000000       0xee /Users/yeonwoo-kim/HealthHub/nacl_sdk/pepper_49/toolchain/mac_pnacl/bin/../x86_64-nacl/lib32/libcrt_common.a(lib_a-__atexit.o)
 .comment       0x0000000000000000       0xee /Users/yeonwoo-kim/HealthHub/nacl_sdk/pepper_49/toolchain/mac_pnacl/bin/../x86_64-nacl/lib32/libcrt_common.a(lib_a-__call_atexit.o)
 .comment       0x0000000000000000       0xee /Users/yeonwoo-kim/HealthHub/nacl_sdk/pepper_49/toolchain/mac_pnacl/bin/../x86_64-nacl/lib32/libcrt_common.a(lib_a-dtoa.o)
 .comment       0x0000000000000000       0xee /Users/yeonwoo-kim/HealthHub/nacl_sdk/pepper_49/toolchain/mac_pnacl/bin/../x86_64-nacl/lib32/libcrt_common.a(lib_a-envlock.o)
 .comment       0x0000000000000000       0xee /Users/yeonwoo-kim/HealthHub/nacl_sdk/pepper_49/toolchain/mac_pnacl/bin/../x86_64-nacl/lib32/libcrt_common.a(lib_a-fclose.o)
 .comment       0x0000000000000000       0xee /Users/yeonwoo-kim/HealthHub/nacl_sdk/pepper_49/toolchain/mac_pnacl/bin/../x86_64-nacl/lib32/libcrt_common.a(lib_a-fvwrite.o)
 .comment       0x0000000000000000       0xee /Users/yeonwoo-kim/HealthHub/nacl_sdk/pepper_49/toolchain/mac_pnacl/bin/../x86_64-nacl/lib32/libcrt_common.a(lib_a-locale.o)
 .comment       0x0000000000000000       0xee /Users/yeonwoo-kim/HealthHub/nacl_sdk/pepper_49/toolchain/mac_pnacl/bin/../x86_64-nacl/lib32/libcrt_common.a(lib_a-makebuf.o)
 .comment       0x0000000000000000       0xee /Users/yeonwoo-kim/HealthHub/nacl_sdk/pepper_49/toolchain/mac_pnacl/bin/../x86_64-nacl/lib32/libcrt_common.a(lib_a-mbtowc_r.o)
 .comment       0x0000000000000000       0xee /Users/yeonwoo-kim/HealthHub/nacl_sdk/pepper_49/toolchain/mac_pnacl/bin/../x86_64-nacl/lib32/libcrt_common.a(lib_a-mprec.o)
 .comment       0x0000000000000000       0xee /Users/yeonwoo-kim/HealthHub/nacl_sdk/pepper_49/toolchain/mac_pnacl/bin/../x86_64-nacl/lib32/libcrt_common.a(lib_a-s_fpclassify.o)
 .comment       0x0000000000000000       0xee /Users/yeonwoo-kim/HealthHub/nacl_sdk/pepper_49/toolchain/mac_pnacl/bin/../x86_64-nacl/lib32/libcrt_common.a(lib_a-s_frexp.o)
 .comment       0x0000000000000000       0xee /Users/yeonwoo-kim/HealthHub/nacl_sdk/pepper_49/toolchain/mac_pnacl/bin/../x86_64-nacl/lib32/libcrt_common.a(lib_a-strcasecmp.o)
 .comment       0x0000000000000000       0xee /Users/yeonwoo-kim/HealthHub/nacl_sdk/pepper_49/toolchain/mac_pnacl/bin/../x86_64-nacl/lib32/libcrt_common.a(lib_a-strlcpy.o)
 .comment       0x0000000000000000       0xee /Users/yeonwoo-kim/HealthHub/nacl_sdk/pepper_49/toolchain/mac_pnacl/bin/../x86_64-nacl/lib32/libcrt_common.a(lib_a-strncasecmp.o)
 .comment       0x0000000000000000       0xee /Users/yeonwoo-kim/HealthHub/nacl_sdk/pepper_49/toolchain/mac_pnacl/bin/../x86_64-nacl/lib32/libcrt_common.a(lib_a-strncpy.o)
 .comment       0x0000000000000000       0xee /Users/yeonwoo-kim/HealthHub/nacl_sdk/pepper_49/toolchain/mac_pnacl/bin/../x86_64-nacl/lib32/libcrt_common.a(lib_a-strtol.o)
 .comment       0x0000000000000000       0xee /Users/yeonwoo-kim/HealthHub/nacl_sdk/pepper_49/toolchain/mac_pnacl/bin/../x86_64-nacl/lib32/libcrt_common.a(lib_a-svfprintf.o)
 .comment       0x0000000000000000       0xee /Users/yeonwoo-kim/HealthHub/nacl_sdk/pepper_49/toolchain/mac_pnacl/bin/../x86_64-nacl/lib32/libcrt_common.a(lib_a-vfiprintf.o)
 .comment       0x0000000000000000       0xee /Users/yeonwoo-kim/HealthHub/nacl_sdk/pepper_49/toolchain/mac_pnacl/bin/../x86_64-nacl/lib32/libcrt_common.a(lib_a-wcsnrtombs.o)
 .comment       0x0000000000000000       0xee /Users/yeonwoo-kim/HealthHub/nacl_sdk/pepper_49/toolchain/mac_pnacl/bin/../x86_64-nacl/lib32/libcrt_common.a(lib_a-ctype_.o)
 .comment       0x0000000000000000       0xee /Users/yeonwoo-kim/HealthHub/nacl_sdk/pepper_49/toolchain/mac_pnacl/bin/../x86_64-nacl/lib32/libcrt_common.a(lib_a-fputwc.o)
 .comment       0x0000000000000000       0xee /Users/yeonwoo-kim/HealthHub/nacl_sdk/pepper_49/toolchain/mac_pnacl/bin/../x86_64-nacl/lib32/libcrt_common.a(lib_a-svfiprintf.o)
 .comment       0x0000000000000000       0xee /Users/yeonwoo-kim/HealthHub/nacl_sdk/pepper_49/toolchain/mac_pnacl/bin/../x86_64-nacl/lib32/libcrt_common.a(lib_a-wbuf.o)
 .comment       0x0000000000000000       0xee /Users/yeonwoo-kim/HealthHub/nacl_sdk/pepper_49/toolchain/mac_pnacl/bin/../x86_64-nacl/lib32/libnacl.a(close.o)
 .comment       0x0000000000000000       0xee /Users/yeonwoo-kim/HealthHub/nacl_sdk/pepper_49/toolchain/mac_pnacl/bin/../x86_64-nacl/lib32/libnacl.a(fstat.o)
 .comment       0x0000000000000000       0xee /Users/yeonwoo-kim/HealthHub/nacl_sdk/pepper_49/toolchain/mac_pnacl/bin/../x86_64-nacl/lib32/libnacl.a(isatty.o)
 .comment       0x0000000000000000       0xee /Users/yeonwoo-kim/HealthHub/nacl_sdk/pepper_49/toolchain/mac_pnacl/bin/../x86_64-nacl/lib32/libnacl.a(lseek.o)
 .comment       0x0000000000000000       0xee /Users/yeonwoo-kim/HealthHub/nacl_sdk/pepper_49/toolchain/mac_pnacl/bin/../x86_64-nacl/lib32/libnacl.a(nanosleep.o)
 .comment       0x0000000000000000       0xee /Users/yeonwoo-kim/HealthHub/nacl_sdk/pepper_49/toolchain/mac_pnacl/bin/../x86_64-nacl/lib32/libnacl.a(nacl_irt_fdio.o)
 .comment       0x0000000000000000       0xee /Users/yeonwoo-kim/HealthHub/nacl_sdk/pepper_49/toolchain/mac_pnacl/bin/../x86_64-nacl/lib32/libnacl.a(read.o)
 .comment       0x0000000000000000       0xee /Users/yeonwoo-kim/HealthHub/nacl_sdk/pepper_49/toolchain/mac_pnacl/bin/../lib/clang/3.7.0/lib/i686-nacl/libgcc.a(udivdi3.o)
 .comment       0x0000000000000000       0xee /Users/yeonwoo-kim/HealthHub/nacl_sdk/pepper_49/toolchain/mac_pnacl/bin/../lib/clang/3.7.0/lib/i686-nacl/libgcc.a(udivmoddi4.o)
 .comment       0x0000000000000000       0xee /Users/yeonwoo-kim/HealthHub/nacl_sdk/pepper_49/toolchain/mac_pnacl/bin/../lib/clang/3.7.0/lib/i686-nacl/libgcc.a(umoddi3.o)
 .comment       0x00000000000000ed       0x88 /Users/yeonwoo-kim/HealthHub/nacl_sdk/pepper_49/toolchain/mac_pnacl/bin/../lib/clang/3.7.0/lib/i686-nacl/libgcc_eh.a(unwind-dw2-fde-glibc.o)
                                         0x89 (size before relaxing)
 .comment       0x0000000000000000       0xee /Users/yeonwoo-kim/HealthHub/nacl_sdk/pepper_49/toolchain/mac_pnacl/bin/../lib/clang/3.7.0/lib/i686-nacl/crtend.o

.debug
 *(.debug)

.line
 *(.line)

.debug_srcinfo
 *(.debug_srcinfo)

.debug_sfnames
 *(.debug_sfnames)

.debug_aranges  0x0000000000000000       0xe0
 *(.debug_aranges)
 .debug_aranges
                0x0000000000000000       0x20 /Users/yeonwoo-kim/HealthHub/nacl_sdk/pepper_49/toolchain/mac_pnacl/bin/../x86_64-nacl/lib32/libcrt_common.a(lib_a-memcpy.o)
 .debug_aranges
                0x0000000000000020       0x20 /Users/yeonwoo-kim/HealthHub/nacl_sdk/pepper_49/toolchain/mac_pnacl/bin/../x86_64-nacl/lib32/libcrt_common.a(lib_a-memset.o)
 .debug_aranges
                0x0000000000000040       0x20 /Users/yeonwoo-kim/HealthHub/nacl_sdk/pepper_49/toolchain/mac_pnacl/bin/../x86_64-nacl/lib32/libcrt_common.a(lib_a-strlen.o)
 .debug_aranges
                0x0000000000000060       0x20 /Users/yeonwoo-kim/HealthHub/nacl_sdk/pepper_49/toolchain/mac_pnacl/bin/../x86_64-nacl/lib32/libcrt_common.a(lib_a-memchr.o)
 .debug_aranges
                0x0000000000000080       0x20 /Users/yeonwoo-kim/HealthHub/nacl_sdk/pepper_49/toolchain/mac_pnacl/bin/../x86_64-nacl/lib32/libcrt_common.a(lib_a-memmove.o)
 .debug_aranges
                0x00000000000000a0       0x20 /Users/yeonwoo-kim/HealthHub/nacl_sdk/pepper_49/toolchain/mac_pnacl/bin/../x86_64-nacl/lib32/libcrt_common.a(lib_a-strchr.o)
 .debug_aranges
                0x00000000000000c0       0x20 /Users/yeonwoo-kim/HealthHub/nacl_sdk/pepper_49/toolchain/mac_pnacl/bin/../lib/clang/3.7.0/lib/i686-nacl/libgcc_eh.a(unwind-dw2-fde-glibc.o)

.debug_pubnames
                0x0000000000000000     0x2d5c
 *(.debug_pubnames)
 .debug_pubnames
                0x0000000000000000      0x223 clang-newlib/Release/debugging_x86_32.o
 .debug_pubnames
                0x0000000000000223      0x1c3 /Users/yeonwoo-kim/HealthHub/nacl_sdk/pepper_49/lib/clang-newlib_x86_32/Release/liberror_handling.a(error_handling_x86_32.o)
 .debug_pubnames
                0x00000000000003e6       0x43 /Users/yeonwoo-kim/HealthHub/nacl_sdk/pepper_49/lib/clang-newlib_x86_32/Release/liberror_handling.a(string_stream_x86_32.o)
 .debug_pubnames
                0x0000000000000429       0x1b /Users/yeonwoo-kim/HealthHub/nacl_sdk/pepper_49/toolchain/mac_pnacl/bin/../x86_64-nacl/lib32/libppapi_stub.a(plugin_main_irt_21ce9d26.o)
 .debug_pubnames
                0x0000000000000444       0x44 /Users/yeonwoo-kim/HealthHub/nacl_sdk/pepper_49/toolchain/mac_pnacl/bin/../x86_64-nacl/lib32/libppapi_stub.a(ppapi_plugin_main_399d0cf7.o)
 .debug_pubnames
                0x0000000000000488       0x53 /Users/yeonwoo-kim/HealthHub/nacl_sdk/pepper_49/toolchain/mac_pnacl/bin/../x86_64-nacl/lib32/libppapi_stub.a(ppapi_plugin_start_8da67623.o)
 .debug_pubnames
                0x00000000000004db       0x68 /Users/yeonwoo-kim/HealthHub/nacl_sdk/pepper_49/toolchain/mac_pnacl/bin/../x86_64-nacl/lib32/libppapi_stub.a(thread_creator_ccf263e1.o)
 .debug_pubnames
                0x0000000000000543      0x627 /Users/yeonwoo-kim/HealthHub/nacl_sdk/pepper_49/toolchain/mac_pnacl/bin/../x86_64-nacl/lib32/libpthread.a(nc_thread.o)
 .debug_pubnames
                0x0000000000000b6a      0x19c /Users/yeonwoo-kim/HealthHub/nacl_sdk/pepper_49/toolchain/mac_pnacl/bin/../x86_64-nacl/lib32/libpthread.a(nc_mutex.o)
 .debug_pubnames
                0x0000000000000d06      0x166 /Users/yeonwoo-kim/HealthHub/nacl_sdk/pepper_49/toolchain/mac_pnacl/bin/../x86_64-nacl/lib32/libpthread.a(nc_condvar.o)
 .debug_pubnames
                0x0000000000000e6c      0x4d7 /Users/yeonwoo-kim/HealthHub/nacl_sdk/pepper_49/toolchain/mac_pnacl/bin/../x86_64-nacl/lib32/libpthread.a(valgrind_annotations.o)
 .debug_pubnames
                0x0000000000001343       0x49 /Users/yeonwoo-kim/HealthHub/nacl_sdk/pepper_49/toolchain/mac_pnacl/bin/../x86_64-nacl/lib32/libpthread.a(nc_init_irt.o)
 .debug_pubnames
                0x000000000000138c      0x1f6 /Users/yeonwoo-kim/HealthHub/nacl_sdk/pepper_49/toolchain/mac_pnacl/bin/../x86_64-nacl/lib32/libnacl.a(nacl_irt.o)
 .debug_pubnames
                0x0000000000001582       0x1c /Users/yeonwoo-kim/HealthHub/nacl_sdk/pepper_49/toolchain/mac_pnacl/bin/../x86_64-nacl/lib32/libnacl.a(_exit.o)
 .debug_pubnames
                0x000000000000159e       0x1b /Users/yeonwoo-kim/HealthHub/nacl_sdk/pepper_49/toolchain/mac_pnacl/bin/../x86_64-nacl/lib32/libnacl.a(mmap.o)
 .debug_pubnames
                0x00000000000015b9       0x1d /Users/yeonwoo-kim/HealthHub/nacl_sdk/pepper_49/toolchain/mac_pnacl/bin/../x86_64-nacl/lib32/libnacl.a(munmap.o)
 .debug_pubnames
                0x00000000000015d6       0x2b /Users/yeonwoo-kim/HealthHub/nacl_sdk/pepper_49/toolchain/mac_pnacl/bin/../x86_64-nacl/lib32/libnacl.a(nacl_interface_query.o)
 .debug_pubnames
                0x0000000000001601       0x1c /Users/yeonwoo-kim/HealthHub/nacl_sdk/pepper_49/toolchain/mac_pnacl/bin/../x86_64-nacl/lib32/libnacl.a(write.o)
 .debug_pubnames
                0x000000000000161d       0x28 /Users/yeonwoo-kim/HealthHub/nacl_sdk/pepper_49/toolchain/mac_pnacl/bin/../x86_64-nacl/lib32/libnacl.a(environ.o)
 .debug_pubnames
                0x0000000000001645      0x38d /Users/yeonwoo-kim/HealthHub/nacl_sdk/pepper_49/toolchain/mac_pnacl/bin/../x86_64-nacl/lib32/libnacl.a(malloc.o)
 .debug_pubnames
                0x00000000000019d2       0xc5 /Users/yeonwoo-kim/HealthHub/nacl_sdk/pepper_49/toolchain/mac_pnacl/bin/../x86_64-nacl/lib32/libnacl.a(start.o)
 .debug_pubnames
                0x0000000000001a97       0x25 /Users/yeonwoo-kim/HealthHub/nacl_sdk/pepper_49/toolchain/mac_pnacl/bin/../x86_64-nacl/lib32/libnacl.a(nacl_read_tp.o)
 .debug_pubnames
                0x0000000000001abc       0x33 /Users/yeonwoo-kim/HealthHub/nacl_sdk/pepper_49/toolchain/mac_pnacl/bin/../x86_64-nacl/lib32/libnacl.a(pthread_initialize_minimal.o)
 .debug_pubnames
                0x0000000000001aef      0x109 /Users/yeonwoo-kim/HealthHub/nacl_sdk/pepper_49/toolchain/mac_pnacl/bin/../x86_64-nacl/lib32/libnacl.a(tls.o)
 .debug_pubnames
                0x0000000000001bf8       0x52 /Users/yeonwoo-kim/HealthHub/nacl_sdk/pepper_49/toolchain/mac_pnacl/bin/../x86_64-nacl/lib32/libnacl.a(nacl_irt_init.o)
 .debug_pubnames
                0x0000000000001c4a       0x23 /Users/yeonwoo-kim/HealthHub/nacl_sdk/pepper_49/toolchain/mac_pnacl/bin/../x86_64-nacl/lib32/libnacl.a(nacl_tls_get.o)
 .debug_pubnames
                0x0000000000001c6d       0x24 /Users/yeonwoo-kim/HealthHub/nacl_sdk/pepper_49/toolchain/mac_pnacl/bin/../x86_64-nacl/lib32/libnacl.a(nacl_tls_init.o)
 .debug_pubnames
                0x0000000000001c91       0x28 /Users/yeonwoo-kim/HealthHub/nacl_sdk/pepper_49/toolchain/mac_pnacl/bin/../x86_64-nacl/lib32/libnacl.a(abort.o)
 .debug_pubnames
                0x0000000000001cb9       0x22 /Users/yeonwoo-kim/HealthHub/nacl_sdk/pepper_49/toolchain/mac_pnacl/bin/../x86_64-nacl/lib32/libnacl.a(sched_yield.o)
 .debug_pubnames
                0x0000000000001cdb       0x1e /Users/yeonwoo-kim/HealthHub/nacl_sdk/pepper_49/toolchain/mac_pnacl/bin/../x86_64-nacl/lib32/libnacl.a(sysconf.o)
 .debug_pubnames
                0x0000000000001cf9       0x1d /Users/yeonwoo-kim/HealthHub/nacl_sdk/pepper_49/toolchain/mac_pnacl/bin/../x86_64-nacl/lib32/libcrt_common.a(lib_a-atexit.o)
 .debug_pubnames
                0x0000000000001d16       0x1e /Users/yeonwoo-kim/HealthHub/nacl_sdk/pepper_49/toolchain/mac_pnacl/bin/../x86_64-nacl/lib32/libcrt_common.a(lib_a-errno.o)
 .debug_pubnames
                0x0000000000001d34       0x1b /Users/yeonwoo-kim/HealthHub/nacl_sdk/pepper_49/toolchain/mac_pnacl/bin/../x86_64-nacl/lib32/libcrt_common.a(lib_a-exit.o)
 .debug_pubnames
                0x0000000000001d4f       0x3a /Users/yeonwoo-kim/HealthHub/nacl_sdk/pepper_49/toolchain/mac_pnacl/bin/../x86_64-nacl/lib32/libcrt_common.a(lib_a-fflush.o)
 .debug_pubnames
                0x0000000000001d89      0x121 /Users/yeonwoo-kim/HealthHub/nacl_sdk/pepper_49/toolchain/mac_pnacl/bin/../x86_64-nacl/lib32/libcrt_common.a(lib_a-findfp.o)
 .debug_pubnames
                0x0000000000001eaa       0x28 /Users/yeonwoo-kim/HealthHub/nacl_sdk/pepper_49/toolchain/mac_pnacl/bin/../x86_64-nacl/lib32/libcrt_common.a(lib_a-fini.o)
 .debug_pubnames
                0x0000000000001ed2       0x2d /Users/yeonwoo-kim/HealthHub/nacl_sdk/pepper_49/toolchain/mac_pnacl/bin/../x86_64-nacl/lib32/libcrt_common.a(lib_a-fprintf.o)
 .debug_pubnames
                0x0000000000001eff       0x4c /Users/yeonwoo-kim/HealthHub/nacl_sdk/pepper_49/toolchain/mac_pnacl/bin/../x86_64-nacl/lib32/libcrt_common.a(lib_a-fwalk.o)
 .debug_pubnames
                0x0000000000001f4b       0x2b /Users/yeonwoo-kim/HealthHub/nacl_sdk/pepper_49/toolchain/mac_pnacl/bin/../x86_64-nacl/lib32/libcrt_common.a(lib_a-fwrite.o)
 .debug_pubnames
                0x0000000000001f76       0x2a /Users/yeonwoo-kim/HealthHub/nacl_sdk/pepper_49/toolchain/mac_pnacl/bin/../x86_64-nacl/lib32/libcrt_common.a(lib_a-getenv.o)
 .debug_pubnames
                0x0000000000001fa0       0x3d /Users/yeonwoo-kim/HealthHub/nacl_sdk/pepper_49/toolchain/mac_pnacl/bin/../x86_64-nacl/lib32/libcrt_common.a(lib_a-getenv_r.o)
 .debug_pubnames
                0x0000000000001fdd       0x92 /Users/yeonwoo-kim/HealthHub/nacl_sdk/pepper_49/toolchain/mac_pnacl/bin/../x86_64-nacl/lib32/libcrt_common.a(lib_a-impure.o)
 .debug_pubnames
                0x000000000000206f       0x28 /Users/yeonwoo-kim/HealthHub/nacl_sdk/pepper_49/toolchain/mac_pnacl/bin/../x86_64-nacl/lib32/libcrt_common.a(lib_a-init.o)
 .debug_pubnames
                0x0000000000002097       0x1c /Users/yeonwoo-kim/HealthHub/nacl_sdk/pepper_49/toolchain/mac_pnacl/bin/../x86_64-nacl/lib32/libcrt_common.a(lib_a-sleep.o)
 .debug_pubnames
                0x00000000000020b3       0x53 /Users/yeonwoo-kim/HealthHub/nacl_sdk/pepper_49/toolchain/mac_pnacl/bin/../x86_64-nacl/lib32/libcrt_common.a(lib_a-stdio.o)
 .debug_pubnames
                0x0000000000002106       0x1d /Users/yeonwoo-kim/HealthHub/nacl_sdk/pepper_49/toolchain/mac_pnacl/bin/../x86_64-nacl/lib32/libcrt_common.a(lib_a-strcat.o)
 .debug_pubnames
                0x0000000000002123       0x1d /Users/yeonwoo-kim/HealthHub/nacl_sdk/pepper_49/toolchain/mac_pnacl/bin/../x86_64-nacl/lib32/libcrt_common.a(lib_a-strcmp.o)
 .debug_pubnames
                0x0000000000002140       0x1d /Users/yeonwoo-kim/HealthHub/nacl_sdk/pepper_49/toolchain/mac_pnacl/bin/../x86_64-nacl/lib32/libcrt_common.a(lib_a-strcpy.o)
 .debug_pubnames
                0x000000000000215d       0x1e /Users/yeonwoo-kim/HealthHub/nacl_sdk/pepper_49/toolchain/mac_pnacl/bin/../x86_64-nacl/lib32/libcrt_common.a(lib_a-strncmp.o)
 .debug_pubnames
                0x000000000000217b       0x69 /Users/yeonwoo-kim/HealthHub/nacl_sdk/pepper_49/toolchain/mac_pnacl/bin/../x86_64-nacl/lib32/libcrt_common.a(lib_a-vfprintf.o)
 .debug_pubnames
                0x00000000000021e4       0x31 /Users/yeonwoo-kim/HealthHub/nacl_sdk/pepper_49/toolchain/mac_pnacl/bin/../x86_64-nacl/lib32/libcrt_common.a(lib_a-vsnprintf.o)
 .debug_pubnames
                0x0000000000002215       0x2f /Users/yeonwoo-kim/HealthHub/nacl_sdk/pepper_49/toolchain/mac_pnacl/bin/../x86_64-nacl/lib32/libcrt_common.a(lib_a-vsprintf.o)
 .debug_pubnames
                0x0000000000002244       0x2d /Users/yeonwoo-kim/HealthHub/nacl_sdk/pepper_49/toolchain/mac_pnacl/bin/../x86_64-nacl/lib32/libcrt_common.a(lib_a-wcrtomb.o)
 .debug_pubnames
                0x0000000000002271       0x31 /Users/yeonwoo-kim/HealthHub/nacl_sdk/pepper_49/toolchain/mac_pnacl/bin/../x86_64-nacl/lib32/libcrt_common.a(lib_a-wcsrtombs.o)
 .debug_pubnames
                0x00000000000022a2       0x88 /Users/yeonwoo-kim/HealthHub/nacl_sdk/pepper_49/toolchain/mac_pnacl/bin/../x86_64-nacl/lib32/libcrt_common.a(lib_a-wctomb_r.o)
 .debug_pubnames
                0x000000000000232a       0x22 /Users/yeonwoo-kim/HealthHub/nacl_sdk/pepper_49/toolchain/mac_pnacl/bin/../x86_64-nacl/lib32/libcrt_common.a(lib_a-wsetup.o)
 .debug_pubnames
                0x000000000000234c       0x2a /Users/yeonwoo-kim/HealthHub/nacl_sdk/pepper_49/toolchain/mac_pnacl/bin/../x86_64-nacl/lib32/libcrt_common.a(lib_a-__atexit.o)
 .debug_pubnames
                0x0000000000002376       0x39 /Users/yeonwoo-kim/HealthHub/nacl_sdk/pepper_49/toolchain/mac_pnacl/bin/../x86_64-nacl/lib32/libcrt_common.a(lib_a-__call_atexit.o)
 .debug_pubnames
                0x00000000000023af       0x29 /Users/yeonwoo-kim/HealthHub/nacl_sdk/pepper_49/toolchain/mac_pnacl/bin/../x86_64-nacl/lib32/libcrt_common.a(lib_a-dtoa.o)
 .debug_pubnames
                0x00000000000023d8       0x48 /Users/yeonwoo-kim/HealthHub/nacl_sdk/pepper_49/toolchain/mac_pnacl/bin/../x86_64-nacl/lib32/libcrt_common.a(lib_a-envlock.o)
 .debug_pubnames
                0x0000000000002420       0x2b /Users/yeonwoo-kim/HealthHub/nacl_sdk/pepper_49/toolchain/mac_pnacl/bin/../x86_64-nacl/lib32/libcrt_common.a(lib_a-fclose.o)
 .debug_pubnames
                0x000000000000244b       0x23 /Users/yeonwoo-kim/HealthHub/nacl_sdk/pepper_49/toolchain/mac_pnacl/bin/../x86_64-nacl/lib32/libcrt_common.a(lib_a-fvwrite.o)
 .debug_pubnames
                0x000000000000246e      0x1f9 /Users/yeonwoo-kim/HealthHub/nacl_sdk/pepper_49/toolchain/mac_pnacl/bin/../x86_64-nacl/lib32/libcrt_common.a(lib_a-locale.o)
 .debug_pubnames
                0x0000000000002667       0x23 /Users/yeonwoo-kim/HealthHub/nacl_sdk/pepper_49/toolchain/mac_pnacl/bin/../x86_64-nacl/lib32/libcrt_common.a(lib_a-makebuf.o)
 .debug_pubnames
                0x000000000000268a       0xb1 /Users/yeonwoo-kim/HealthHub/nacl_sdk/pepper_49/toolchain/mac_pnacl/bin/../x86_64-nacl/lib32/libcrt_common.a(lib_a-mbtowc_r.o)
 .debug_pubnames
                0x000000000000273b      0x142 /Users/yeonwoo-kim/HealthHub/nacl_sdk/pepper_49/toolchain/mac_pnacl/bin/../x86_64-nacl/lib32/libcrt_common.a(lib_a-mprec.o)
 .debug_pubnames
                0x000000000000287d       0x24 /Users/yeonwoo-kim/HealthHub/nacl_sdk/pepper_49/toolchain/mac_pnacl/bin/../x86_64-nacl/lib32/libcrt_common.a(lib_a-s_fpclassify.o)
 .debug_pubnames
                0x00000000000028a1       0x26 /Users/yeonwoo-kim/HealthHub/nacl_sdk/pepper_49/toolchain/mac_pnacl/bin/../x86_64-nacl/lib32/libcrt_common.a(lib_a-s_frexp.o)
 .debug_pubnames
                0x00000000000028c7       0x21 /Users/yeonwoo-kim/HealthHub/nacl_sdk/pepper_49/toolchain/mac_pnacl/bin/../x86_64-nacl/lib32/libcrt_common.a(lib_a-strcasecmp.o)
 .debug_pubnames
                0x00000000000028e8       0x1e /Users/yeonwoo-kim/HealthHub/nacl_sdk/pepper_49/toolchain/mac_pnacl/bin/../x86_64-nacl/lib32/libcrt_common.a(lib_a-strlcpy.o)
 .debug_pubnames
                0x0000000000002906       0x22 /Users/yeonwoo-kim/HealthHub/nacl_sdk/pepper_49/toolchain/mac_pnacl/bin/../x86_64-nacl/lib32/libcrt_common.a(lib_a-strncasecmp.o)
 .debug_pubnames
                0x0000000000002928       0x1e /Users/yeonwoo-kim/HealthHub/nacl_sdk/pepper_49/toolchain/mac_pnacl/bin/../x86_64-nacl/lib32/libcrt_common.a(lib_a-strncpy.o)
 .debug_pubnames
                0x0000000000002946       0x2b /Users/yeonwoo-kim/HealthHub/nacl_sdk/pepper_49/toolchain/mac_pnacl/bin/../x86_64-nacl/lib32/libcrt_common.a(lib_a-strtol.o)
 .debug_pubnames
                0x0000000000002971       0x4e /Users/yeonwoo-kim/HealthHub/nacl_sdk/pepper_49/toolchain/mac_pnacl/bin/../x86_64-nacl/lib32/libcrt_common.a(lib_a-svfprintf.o)
 .debug_pubnames
                0x00000000000029bf       0x65 /Users/yeonwoo-kim/HealthHub/nacl_sdk/pepper_49/toolchain/mac_pnacl/bin/../x86_64-nacl/lib32/libcrt_common.a(lib_a-vfiprintf.o)
 .debug_pubnames
                0x0000000000002a24       0x33 /Users/yeonwoo-kim/HealthHub/nacl_sdk/pepper_49/toolchain/mac_pnacl/bin/../x86_64-nacl/lib32/libcrt_common.a(lib_a-wcsnrtombs.o)
 .debug_pubnames
                0x0000000000002a57       0x4d /Users/yeonwoo-kim/HealthHub/nacl_sdk/pepper_49/toolchain/mac_pnacl/bin/../x86_64-nacl/lib32/libcrt_common.a(lib_a-ctype_.o)
 .debug_pubnames
                0x0000000000002aa4       0x38 /Users/yeonwoo-kim/HealthHub/nacl_sdk/pepper_49/toolchain/mac_pnacl/bin/../x86_64-nacl/lib32/libcrt_common.a(lib_a-fputwc.o)
 .debug_pubnames
                0x0000000000002adc       0x4a /Users/yeonwoo-kim/HealthHub/nacl_sdk/pepper_49/toolchain/mac_pnacl/bin/../x86_64-nacl/lib32/libcrt_common.a(lib_a-svfiprintf.o)
 .debug_pubnames
                0x0000000000002b26       0x2c /Users/yeonwoo-kim/HealthHub/nacl_sdk/pepper_49/toolchain/mac_pnacl/bin/../x86_64-nacl/lib32/libcrt_common.a(lib_a-wbuf.o)
 .debug_pubnames
                0x0000000000002b52       0x1c /Users/yeonwoo-kim/HealthHub/nacl_sdk/pepper_49/toolchain/mac_pnacl/bin/../x86_64-nacl/lib32/libnacl.a(close.o)
 .debug_pubnames
                0x0000000000002b6e       0x1c /Users/yeonwoo-kim/HealthHub/nacl_sdk/pepper_49/toolchain/mac_pnacl/bin/../x86_64-nacl/lib32/libnacl.a(fstat.o)
 .debug_pubnames
                0x0000000000002b8a       0x1d /Users/yeonwoo-kim/HealthHub/nacl_sdk/pepper_49/toolchain/mac_pnacl/bin/../x86_64-nacl/lib32/libnacl.a(isatty.o)
 .debug_pubnames
                0x0000000000002ba7       0x1c /Users/yeonwoo-kim/HealthHub/nacl_sdk/pepper_49/toolchain/mac_pnacl/bin/../x86_64-nacl/lib32/libnacl.a(lseek.o)
 .debug_pubnames
                0x0000000000002bc3       0x20 /Users/yeonwoo-kim/HealthHub/nacl_sdk/pepper_49/toolchain/mac_pnacl/bin/../x86_64-nacl/lib32/libnacl.a(nanosleep.o)
 .debug_pubnames
                0x0000000000002be3       0x32 /Users/yeonwoo-kim/HealthHub/nacl_sdk/pepper_49/toolchain/mac_pnacl/bin/../x86_64-nacl/lib32/libnacl.a(nacl_irt_fdio.o)
 .debug_pubnames
                0x0000000000002c15       0x1b /Users/yeonwoo-kim/HealthHub/nacl_sdk/pepper_49/toolchain/mac_pnacl/bin/../x86_64-nacl/lib32/libnacl.a(read.o)
 .debug_pubnames
                0x0000000000002c30      0x12c /Users/yeonwoo-kim/HealthHub/nacl_sdk/pepper_49/toolchain/mac_pnacl/bin/../lib/clang/3.7.0/lib/i686-nacl/libgcc_eh.a(unwind-dw2-fde-glibc.o)

.debug_info     0x0000000000000000    0x22a2b
 *(.debug_info .gnu.linkonce.wi.*)
 .debug_info    0x0000000000000000      0xbeb clang-newlib/Release/debugging_x86_32.o
 .debug_info    0x0000000000000beb      0x755 /Users/yeonwoo-kim/HealthHub/nacl_sdk/pepper_49/lib/clang-newlib_x86_32/Release/liberror_handling.a(error_handling_x86_32.o)
 .debug_info    0x0000000000001340      0x194 /Users/yeonwoo-kim/HealthHub/nacl_sdk/pepper_49/lib/clang-newlib_x86_32/Release/liberror_handling.a(string_stream_x86_32.o)
 .debug_info    0x00000000000014d4       0x43 /Users/yeonwoo-kim/HealthHub/nacl_sdk/pepper_49/toolchain/mac_pnacl/bin/../x86_64-nacl/lib32/libppapi_stub.a(plugin_main_irt_21ce9d26.o)
 .debug_info    0x0000000000001517       0xf4 /Users/yeonwoo-kim/HealthHub/nacl_sdk/pepper_49/toolchain/mac_pnacl/bin/../x86_64-nacl/lib32/libppapi_stub.a(ppapi_plugin_main_399d0cf7.o)
 .debug_info    0x000000000000160b      0x32a /Users/yeonwoo-kim/HealthHub/nacl_sdk/pepper_49/toolchain/mac_pnacl/bin/../x86_64-nacl/lib32/libppapi_stub.a(ppapi_plugin_start_8da67623.o)
 .debug_info    0x0000000000001935      0x263 /Users/yeonwoo-kim/HealthHub/nacl_sdk/pepper_49/toolchain/mac_pnacl/bin/../x86_64-nacl/lib32/libppapi_stub.a(thread_creator_ccf263e1.o)
 .debug_info    0x0000000000001b98     0x14c7 /Users/yeonwoo-kim/HealthHub/nacl_sdk/pepper_49/toolchain/mac_pnacl/bin/../x86_64-nacl/lib32/libpthread.a(nc_thread.o)
 .debug_info    0x000000000000305f      0x871 /Users/yeonwoo-kim/HealthHub/nacl_sdk/pepper_49/toolchain/mac_pnacl/bin/../x86_64-nacl/lib32/libpthread.a(nc_mutex.o)
 .debug_info    0x00000000000038d0      0x632 /Users/yeonwoo-kim/HealthHub/nacl_sdk/pepper_49/toolchain/mac_pnacl/bin/../x86_64-nacl/lib32/libpthread.a(nc_condvar.o)
 .debug_info    0x0000000000003f02      0xa19 /Users/yeonwoo-kim/HealthHub/nacl_sdk/pepper_49/toolchain/mac_pnacl/bin/../x86_64-nacl/lib32/libpthread.a(valgrind_annotations.o)
 .debug_info    0x000000000000491b      0x111 /Users/yeonwoo-kim/HealthHub/nacl_sdk/pepper_49/toolchain/mac_pnacl/bin/../x86_64-nacl/lib32/libpthread.a(nc_init_irt.o)
 .debug_info    0x0000000000004a2c      0xb82 /Users/yeonwoo-kim/HealthHub/nacl_sdk/pepper_49/toolchain/mac_pnacl/bin/../x86_64-nacl/lib32/libnacl.a(nacl_irt.o)
 .debug_info    0x00000000000055ae       0x4e /Users/yeonwoo-kim/HealthHub/nacl_sdk/pepper_49/toolchain/mac_pnacl/bin/../x86_64-nacl/lib32/libnacl.a(_exit.o)
 .debug_info    0x00000000000055fc       0xe8 /Users/yeonwoo-kim/HealthHub/nacl_sdk/pepper_49/toolchain/mac_pnacl/bin/../x86_64-nacl/lib32/libnacl.a(mmap.o)
 .debug_info    0x00000000000056e4       0x84 /Users/yeonwoo-kim/HealthHub/nacl_sdk/pepper_49/toolchain/mac_pnacl/bin/../x86_64-nacl/lib32/libnacl.a(munmap.o)
 .debug_info    0x0000000000005768       0x82 /Users/yeonwoo-kim/HealthHub/nacl_sdk/pepper_49/toolchain/mac_pnacl/bin/../x86_64-nacl/lib32/libnacl.a(nacl_interface_query.o)
 .debug_info    0x00000000000057ea       0xa7 /Users/yeonwoo-kim/HealthHub/nacl_sdk/pepper_49/toolchain/mac_pnacl/bin/../x86_64-nacl/lib32/libnacl.a(write.o)
 .debug_info    0x0000000000005891       0x65 /Users/yeonwoo-kim/HealthHub/nacl_sdk/pepper_49/toolchain/mac_pnacl/bin/../x86_64-nacl/lib32/libnacl.a(environ.o)
 .debug_info    0x00000000000058f6     0x3a1c /Users/yeonwoo-kim/HealthHub/nacl_sdk/pepper_49/toolchain/mac_pnacl/bin/../x86_64-nacl/lib32/libnacl.a(malloc.o)
 .debug_info    0x0000000000009312      0x29c /Users/yeonwoo-kim/HealthHub/nacl_sdk/pepper_49/toolchain/mac_pnacl/bin/../x86_64-nacl/lib32/libnacl.a(start.o)
 .debug_info    0x00000000000095ae       0x3d /Users/yeonwoo-kim/HealthHub/nacl_sdk/pepper_49/toolchain/mac_pnacl/bin/../x86_64-nacl/lib32/libnacl.a(nacl_read_tp.o)
 .debug_info    0x00000000000095eb       0x88 /Users/yeonwoo-kim/HealthHub/nacl_sdk/pepper_49/toolchain/mac_pnacl/bin/../x86_64-nacl/lib32/libnacl.a(pthread_initialize_minimal.o)
 .debug_info    0x0000000000009673      0x4a2 /Users/yeonwoo-kim/HealthHub/nacl_sdk/pepper_49/toolchain/mac_pnacl/bin/../x86_64-nacl/lib32/libnacl.a(tls.o)
 .debug_info    0x0000000000009b15      0x268 /Users/yeonwoo-kim/HealthHub/nacl_sdk/pepper_49/toolchain/mac_pnacl/bin/../x86_64-nacl/lib32/libnacl.a(nacl_irt_init.o)
 .debug_info    0x0000000000009d7d       0x3d /Users/yeonwoo-kim/HealthHub/nacl_sdk/pepper_49/toolchain/mac_pnacl/bin/../x86_64-nacl/lib32/libnacl.a(nacl_tls_get.o)
 .debug_info    0x0000000000009dba       0x53 /Users/yeonwoo-kim/HealthHub/nacl_sdk/pepper_49/toolchain/mac_pnacl/bin/../x86_64-nacl/lib32/libnacl.a(nacl_tls_init.o)
 .debug_info    0x0000000000009e0d       0x69 /Users/yeonwoo-kim/HealthHub/nacl_sdk/pepper_49/toolchain/mac_pnacl/bin/../x86_64-nacl/lib32/libnacl.a(abort.o)
 .debug_info    0x0000000000009e76       0x53 /Users/yeonwoo-kim/HealthHub/nacl_sdk/pepper_49/toolchain/mac_pnacl/bin/../x86_64-nacl/lib32/libnacl.a(sched_yield.o)
 .debug_info    0x0000000000009ec9       0x78 /Users/yeonwoo-kim/HealthHub/nacl_sdk/pepper_49/toolchain/mac_pnacl/bin/../x86_64-nacl/lib32/libnacl.a(sysconf.o)
 .debug_info    0x0000000000009f41       0x75 /Users/yeonwoo-kim/HealthHub/nacl_sdk/pepper_49/toolchain/mac_pnacl/bin/../x86_64-nacl/lib32/libcrt_common.a(lib_a-atexit.o)
 .debug_info    0x0000000000009fb6       0x48 /Users/yeonwoo-kim/HealthHub/nacl_sdk/pepper_49/toolchain/mac_pnacl/bin/../x86_64-nacl/lib32/libcrt_common.a(lib_a-errno.o)
 .debug_info    0x0000000000009ffe       0x50 /Users/yeonwoo-kim/HealthHub/nacl_sdk/pepper_49/toolchain/mac_pnacl/bin/../x86_64-nacl/lib32/libcrt_common.a(lib_a-exit.o)
 .debug_info    0x000000000000a04e      0x9b6 /Users/yeonwoo-kim/HealthHub/nacl_sdk/pepper_49/toolchain/mac_pnacl/bin/../x86_64-nacl/lib32/libcrt_common.a(lib_a-fflush.o)
 .debug_info    0x000000000000aa04      0xb6d /Users/yeonwoo-kim/HealthHub/nacl_sdk/pepper_49/toolchain/mac_pnacl/bin/../x86_64-nacl/lib32/libcrt_common.a(lib_a-findfp.o)
 .debug_info    0x000000000000b571       0x65 /Users/yeonwoo-kim/HealthHub/nacl_sdk/pepper_49/toolchain/mac_pnacl/bin/../x86_64-nacl/lib32/libcrt_common.a(lib_a-fini.o)
 .debug_info    0x000000000000b5d6      0x8fe /Users/yeonwoo-kim/HealthHub/nacl_sdk/pepper_49/toolchain/mac_pnacl/bin/../x86_64-nacl/lib32/libcrt_common.a(lib_a-fprintf.o)
 .debug_info    0x000000000000bed4      0xa46 /Users/yeonwoo-kim/HealthHub/nacl_sdk/pepper_49/toolchain/mac_pnacl/bin/../x86_64-nacl/lib32/libcrt_common.a(lib_a-fwalk.o)
 .debug_info    0x000000000000c91a      0x998 /Users/yeonwoo-kim/HealthHub/nacl_sdk/pepper_49/toolchain/mac_pnacl/bin/../x86_64-nacl/lib32/libcrt_common.a(lib_a-fwrite.o)
 .debug_info    0x000000000000d2b2       0xb0 /Users/yeonwoo-kim/HealthHub/nacl_sdk/pepper_49/toolchain/mac_pnacl/bin/../x86_64-nacl/lib32/libcrt_common.a(lib_a-getenv.o)
 .debug_info    0x000000000000d362      0x8ed /Users/yeonwoo-kim/HealthHub/nacl_sdk/pepper_49/toolchain/mac_pnacl/bin/../x86_64-nacl/lib32/libcrt_common.a(lib_a-getenv_r.o)
 .debug_info    0x000000000000dc4f      0x892 /Users/yeonwoo-kim/HealthHub/nacl_sdk/pepper_49/toolchain/mac_pnacl/bin/../x86_64-nacl/lib32/libcrt_common.a(lib_a-impure.o)
 .debug_info    0x000000000000e4e1       0x65 /Users/yeonwoo-kim/HealthHub/nacl_sdk/pepper_49/toolchain/mac_pnacl/bin/../x86_64-nacl/lib32/libcrt_common.a(lib_a-init.o)
 .debug_info    0x000000000000e546      0x1ea /Users/yeonwoo-kim/HealthHub/nacl_sdk/pepper_49/toolchain/mac_pnacl/bin/../x86_64-nacl/lib32/libcrt_common.a(lib_a-memcpy.o)
 .debug_info    0x000000000000e730      0x1ea /Users/yeonwoo-kim/HealthHub/nacl_sdk/pepper_49/toolchain/mac_pnacl/bin/../x86_64-nacl/lib32/libcrt_common.a(lib_a-memset.o)
 .debug_info    0x000000000000e91a       0xb2 /Users/yeonwoo-kim/HealthHub/nacl_sdk/pepper_49/toolchain/mac_pnacl/bin/../x86_64-nacl/lib32/libcrt_common.a(lib_a-sleep.o)
 .debug_info    0x000000000000e9cc      0xa1a /Users/yeonwoo-kim/HealthHub/nacl_sdk/pepper_49/toolchain/mac_pnacl/bin/../x86_64-nacl/lib32/libcrt_common.a(lib_a-stdio.o)
 .debug_info    0x000000000000f3e6       0xb2 /Users/yeonwoo-kim/HealthHub/nacl_sdk/pepper_49/toolchain/mac_pnacl/bin/../x86_64-nacl/lib32/libcrt_common.a(lib_a-strcat.o)
 .debug_info    0x000000000000f498       0xb5 /Users/yeonwoo-kim/HealthHub/nacl_sdk/pepper_49/toolchain/mac_pnacl/bin/../x86_64-nacl/lib32/libcrt_common.a(lib_a-strcmp.o)
 .debug_info    0x000000000000f54d       0xc3 /Users/yeonwoo-kim/HealthHub/nacl_sdk/pepper_49/toolchain/mac_pnacl/bin/../x86_64-nacl/lib32/libcrt_common.a(lib_a-strcpy.o)
 .debug_info    0x000000000000f610      0x225 /Users/yeonwoo-kim/HealthHub/nacl_sdk/pepper_49/toolchain/mac_pnacl/bin/../x86_64-nacl/lib32/libcrt_common.a(lib_a-strlen.o)
 .debug_info    0x000000000000f835       0xd6 /Users/yeonwoo-kim/HealthHub/nacl_sdk/pepper_49/toolchain/mac_pnacl/bin/../x86_64-nacl/lib32/libcrt_common.a(lib_a-strncmp.o)
 .debug_info    0x000000000000f90b     0x102c /Users/yeonwoo-kim/HealthHub/nacl_sdk/pepper_49/toolchain/mac_pnacl/bin/../x86_64-nacl/lib32/libcrt_common.a(lib_a-vfprintf.o)
 .debug_info    0x0000000000010937      0x9a3 /Users/yeonwoo-kim/HealthHub/nacl_sdk/pepper_49/toolchain/mac_pnacl/bin/../x86_64-nacl/lib32/libcrt_common.a(lib_a-vsnprintf.o)
 .debug_info    0x00000000000112da      0x966 /Users/yeonwoo-kim/HealthHub/nacl_sdk/pepper_49/toolchain/mac_pnacl/bin/../x86_64-nacl/lib32/libcrt_common.a(lib_a-vsprintf.o)
 .debug_info    0x0000000000011c40      0x937 /Users/yeonwoo-kim/HealthHub/nacl_sdk/pepper_49/toolchain/mac_pnacl/bin/../x86_64-nacl/lib32/libcrt_common.a(lib_a-wcrtomb.o)
 .debug_info    0x0000000000012577      0x91c /Users/yeonwoo-kim/HealthHub/nacl_sdk/pepper_49/toolchain/mac_pnacl/bin/../x86_64-nacl/lib32/libcrt_common.a(lib_a-wcsrtombs.o)
 .debug_info    0x0000000000012e93      0xb77 /Users/yeonwoo-kim/HealthHub/nacl_sdk/pepper_49/toolchain/mac_pnacl/bin/../x86_64-nacl/lib32/libcrt_common.a(lib_a-wctomb_r.o)
 .debug_info    0x0000000000013a0a      0x882 /Users/yeonwoo-kim/HealthHub/nacl_sdk/pepper_49/toolchain/mac_pnacl/bin/../x86_64-nacl/lib32/libcrt_common.a(lib_a-wsetup.o)
 .debug_info    0x000000000001428c      0x16d /Users/yeonwoo-kim/HealthHub/nacl_sdk/pepper_49/toolchain/mac_pnacl/bin/../x86_64-nacl/lib32/libcrt_common.a(lib_a-__atexit.o)
 .debug_info    0x00000000000143f9      0x203 /Users/yeonwoo-kim/HealthHub/nacl_sdk/pepper_49/toolchain/mac_pnacl/bin/../x86_64-nacl/lib32/libcrt_common.a(lib_a-__call_atexit.o)
 .debug_info    0x00000000000145fc      0xc0f /Users/yeonwoo-kim/HealthHub/nacl_sdk/pepper_49/toolchain/mac_pnacl/bin/../x86_64-nacl/lib32/libcrt_common.a(lib_a-dtoa.o)
 .debug_info    0x000000000001520b      0x878 /Users/yeonwoo-kim/HealthHub/nacl_sdk/pepper_49/toolchain/mac_pnacl/bin/../x86_64-nacl/lib32/libcrt_common.a(lib_a-envlock.o)
 .debug_info    0x0000000000015a83      0x8b6 /Users/yeonwoo-kim/HealthHub/nacl_sdk/pepper_49/toolchain/mac_pnacl/bin/../x86_64-nacl/lib32/libcrt_common.a(lib_a-fclose.o)
 .debug_info    0x0000000000016339      0x989 /Users/yeonwoo-kim/HealthHub/nacl_sdk/pepper_49/toolchain/mac_pnacl/bin/../x86_64-nacl/lib32/libcrt_common.a(lib_a-fvwrite.o)
 .debug_info    0x0000000000016cc2      0xe0f /Users/yeonwoo-kim/HealthHub/nacl_sdk/pepper_49/toolchain/mac_pnacl/bin/../x86_64-nacl/lib32/libcrt_common.a(lib_a-locale.o)
 .debug_info    0x0000000000017ad1      0xa62 /Users/yeonwoo-kim/HealthHub/nacl_sdk/pepper_49/toolchain/mac_pnacl/bin/../x86_64-nacl/lib32/libcrt_common.a(lib_a-makebuf.o)
 .debug_info    0x0000000000018533      0xda2 /Users/yeonwoo-kim/HealthHub/nacl_sdk/pepper_49/toolchain/mac_pnacl/bin/../x86_64-nacl/lib32/libcrt_common.a(lib_a-mbtowc_r.o)
 .debug_info    0x00000000000192d5      0x25f /Users/yeonwoo-kim/HealthHub/nacl_sdk/pepper_49/toolchain/mac_pnacl/bin/../x86_64-nacl/lib32/libcrt_common.a(lib_a-memchr.o)
 .debug_info    0x0000000000019534      0x1ec /Users/yeonwoo-kim/HealthHub/nacl_sdk/pepper_49/toolchain/mac_pnacl/bin/../x86_64-nacl/lib32/libcrt_common.a(lib_a-memmove.o)
 .debug_info    0x0000000000019720     0x16ca /Users/yeonwoo-kim/HealthHub/nacl_sdk/pepper_49/toolchain/mac_pnacl/bin/../x86_64-nacl/lib32/libcrt_common.a(lib_a-mprec.o)
 .debug_info    0x000000000001adea       0xe7 /Users/yeonwoo-kim/HealthHub/nacl_sdk/pepper_49/toolchain/mac_pnacl/bin/../x86_64-nacl/lib32/libcrt_common.a(lib_a-s_fpclassify.o)
 .debug_info    0x000000000001aed1      0x15b /Users/yeonwoo-kim/HealthHub/nacl_sdk/pepper_49/toolchain/mac_pnacl/bin/../x86_64-nacl/lib32/libcrt_common.a(lib_a-s_frexp.o)
 .debug_info    0x000000000001b02c      0x100 /Users/yeonwoo-kim/HealthHub/nacl_sdk/pepper_49/toolchain/mac_pnacl/bin/../x86_64-nacl/lib32/libcrt_common.a(lib_a-strcasecmp.o)
 .debug_info    0x000000000001b12c      0x29c /Users/yeonwoo-kim/HealthHub/nacl_sdk/pepper_49/toolchain/mac_pnacl/bin/../x86_64-nacl/lib32/libcrt_common.a(lib_a-strchr.o)
 .debug_info    0x000000000001b3c8       0xbf /Users/yeonwoo-kim/HealthHub/nacl_sdk/pepper_49/toolchain/mac_pnacl/bin/../x86_64-nacl/lib32/libcrt_common.a(lib_a-strlcpy.o)
 .debug_info    0x000000000001b487      0x11e /Users/yeonwoo-kim/HealthHub/nacl_sdk/pepper_49/toolchain/mac_pnacl/bin/../x86_64-nacl/lib32/libcrt_common.a(lib_a-strncasecmp.o)
 .debug_info    0x000000000001b5a5       0xee /Users/yeonwoo-kim/HealthHub/nacl_sdk/pepper_49/toolchain/mac_pnacl/bin/../x86_64-nacl/lib32/libcrt_common.a(lib_a-strncpy.o)
 .debug_info    0x000000000001b693      0x934 /Users/yeonwoo-kim/HealthHub/nacl_sdk/pepper_49/toolchain/mac_pnacl/bin/../x86_64-nacl/lib32/libcrt_common.a(lib_a-strtol.o)
 .debug_info    0x000000000001bfc7      0xf20 /Users/yeonwoo-kim/HealthHub/nacl_sdk/pepper_49/toolchain/mac_pnacl/bin/../x86_64-nacl/lib32/libcrt_common.a(lib_a-svfprintf.o)
 .debug_info    0x000000000001cee7     0x1262 /Users/yeonwoo-kim/HealthHub/nacl_sdk/pepper_49/toolchain/mac_pnacl/bin/../x86_64-nacl/lib32/libcrt_common.a(lib_a-vfiprintf.o)
 .debug_info    0x000000000001e149      0x9c4 /Users/yeonwoo-kim/HealthHub/nacl_sdk/pepper_49/toolchain/mac_pnacl/bin/../x86_64-nacl/lib32/libcrt_common.a(lib_a-wcsnrtombs.o)
 .debug_info    0x000000000001eb0d       0xb2 /Users/yeonwoo-kim/HealthHub/nacl_sdk/pepper_49/toolchain/mac_pnacl/bin/../x86_64-nacl/lib32/libcrt_common.a(lib_a-ctype_.o)
 .debug_info    0x000000000001ebbf      0x97d /Users/yeonwoo-kim/HealthHub/nacl_sdk/pepper_49/toolchain/mac_pnacl/bin/../x86_64-nacl/lib32/libcrt_common.a(lib_a-fputwc.o)
 .debug_info    0x000000000001f53c      0xca1 /Users/yeonwoo-kim/HealthHub/nacl_sdk/pepper_49/toolchain/mac_pnacl/bin/../x86_64-nacl/lib32/libcrt_common.a(lib_a-svfiprintf.o)
 .debug_info    0x00000000000201dd      0x8d4 /Users/yeonwoo-kim/HealthHub/nacl_sdk/pepper_49/toolchain/mac_pnacl/bin/../x86_64-nacl/lib32/libcrt_common.a(lib_a-wbuf.o)
 .debug_info    0x0000000000020ab1       0x62 /Users/yeonwoo-kim/HealthHub/nacl_sdk/pepper_49/toolchain/mac_pnacl/bin/../x86_64-nacl/lib32/libnacl.a(close.o)
 .debug_info    0x0000000000020b13      0x25c /Users/yeonwoo-kim/HealthHub/nacl_sdk/pepper_49/toolchain/mac_pnacl/bin/../x86_64-nacl/lib32/libnacl.a(fstat.o)
 .debug_info    0x0000000000020d6f       0x71 /Users/yeonwoo-kim/HealthHub/nacl_sdk/pepper_49/toolchain/mac_pnacl/bin/../x86_64-nacl/lib32/libnacl.a(isatty.o)
 .debug_info    0x0000000000020de0       0xb7 /Users/yeonwoo-kim/HealthHub/nacl_sdk/pepper_49/toolchain/mac_pnacl/bin/../x86_64-nacl/lib32/libnacl.a(lseek.o)
 .debug_info    0x0000000000020e97       0xd0 /Users/yeonwoo-kim/HealthHub/nacl_sdk/pepper_49/toolchain/mac_pnacl/bin/../x86_64-nacl/lib32/libnacl.a(nanosleep.o)
 .debug_info    0x0000000000020f67       0x38 /Users/yeonwoo-kim/HealthHub/nacl_sdk/pepper_49/toolchain/mac_pnacl/bin/../x86_64-nacl/lib32/libnacl.a(nacl_irt_fdio.o)
 .debug_info    0x0000000000020f9f       0xa2 /Users/yeonwoo-kim/HealthHub/nacl_sdk/pepper_49/toolchain/mac_pnacl/bin/../x86_64-nacl/lib32/libnacl.a(read.o)
 .debug_info    0x0000000000021041     0x19ea /Users/yeonwoo-kim/HealthHub/nacl_sdk/pepper_49/toolchain/mac_pnacl/bin/../lib/clang/3.7.0/lib/i686-nacl/libgcc_eh.a(unwind-dw2-fde-glibc.o)

.debug_abbrev   0x0000000000000000     0x6581
 *(.debug_abbrev)
 .debug_abbrev  0x0000000000000000      0x221 clang-newlib/Release/debugging_x86_32.o
 .debug_abbrev  0x0000000000000221      0x235 /Users/yeonwoo-kim/HealthHub/nacl_sdk/pepper_49/lib/clang-newlib_x86_32/Release/liberror_handling.a(error_handling_x86_32.o)
 .debug_abbrev  0x0000000000000456       0xc8 /Users/yeonwoo-kim/HealthHub/nacl_sdk/pepper_49/lib/clang-newlib_x86_32/Release/liberror_handling.a(string_stream_x86_32.o)
 .debug_abbrev  0x000000000000051e       0x3c /Users/yeonwoo-kim/HealthHub/nacl_sdk/pepper_49/toolchain/mac_pnacl/bin/../x86_64-nacl/lib32/libppapi_stub.a(plugin_main_irt_21ce9d26.o)
 .debug_abbrev  0x000000000000055a       0x9e /Users/yeonwoo-kim/HealthHub/nacl_sdk/pepper_49/toolchain/mac_pnacl/bin/../x86_64-nacl/lib32/libppapi_stub.a(ppapi_plugin_main_399d0cf7.o)
 .debug_abbrev  0x00000000000005f8      0x13a /Users/yeonwoo-kim/HealthHub/nacl_sdk/pepper_49/toolchain/mac_pnacl/bin/../x86_64-nacl/lib32/libppapi_stub.a(ppapi_plugin_start_8da67623.o)
 .debug_abbrev  0x0000000000000732       0xe5 /Users/yeonwoo-kim/HealthHub/nacl_sdk/pepper_49/toolchain/mac_pnacl/bin/../x86_64-nacl/lib32/libppapi_stub.a(thread_creator_ccf263e1.o)
 .debug_abbrev  0x0000000000000817      0x3b6 /Users/yeonwoo-kim/HealthHub/nacl_sdk/pepper_49/toolchain/mac_pnacl/bin/../x86_64-nacl/lib32/libpthread.a(nc_thread.o)
 .debug_abbrev  0x0000000000000bcd      0x207 /Users/yeonwoo-kim/HealthHub/nacl_sdk/pepper_49/toolchain/mac_pnacl/bin/../x86_64-nacl/lib32/libpthread.a(nc_mutex.o)
 .debug_abbrev  0x0000000000000dd4      0x166 /Users/yeonwoo-kim/HealthHub/nacl_sdk/pepper_49/toolchain/mac_pnacl/bin/../x86_64-nacl/lib32/libpthread.a(nc_condvar.o)
 .debug_abbrev  0x0000000000000f3a       0xda /Users/yeonwoo-kim/HealthHub/nacl_sdk/pepper_49/toolchain/mac_pnacl/bin/../x86_64-nacl/lib32/libpthread.a(valgrind_annotations.o)
 .debug_abbrev  0x0000000000001014       0xb8 /Users/yeonwoo-kim/HealthHub/nacl_sdk/pepper_49/toolchain/mac_pnacl/bin/../x86_64-nacl/lib32/libpthread.a(nc_init_irt.o)
 .debug_abbrev  0x00000000000010cc      0x1e7 /Users/yeonwoo-kim/HealthHub/nacl_sdk/pepper_49/toolchain/mac_pnacl/bin/../x86_64-nacl/lib32/libnacl.a(nacl_irt.o)
 .debug_abbrev  0x00000000000012b3       0x4c /Users/yeonwoo-kim/HealthHub/nacl_sdk/pepper_49/toolchain/mac_pnacl/bin/../x86_64-nacl/lib32/libnacl.a(_exit.o)
 .debug_abbrev  0x00000000000012ff       0x6f /Users/yeonwoo-kim/HealthHub/nacl_sdk/pepper_49/toolchain/mac_pnacl/bin/../x86_64-nacl/lib32/libnacl.a(mmap.o)
 .debug_abbrev  0x000000000000136e       0x6f /Users/yeonwoo-kim/HealthHub/nacl_sdk/pepper_49/toolchain/mac_pnacl/bin/../x86_64-nacl/lib32/libnacl.a(munmap.o)
 .debug_abbrev  0x00000000000013dd       0x6c /Users/yeonwoo-kim/HealthHub/nacl_sdk/pepper_49/toolchain/mac_pnacl/bin/../x86_64-nacl/lib32/libnacl.a(nacl_interface_query.o)
 .debug_abbrev  0x0000000000001449       0x76 /Users/yeonwoo-kim/HealthHub/nacl_sdk/pepper_49/toolchain/mac_pnacl/bin/../x86_64-nacl/lib32/libnacl.a(write.o)
 .debug_abbrev  0x00000000000014bf       0x60 /Users/yeonwoo-kim/HealthHub/nacl_sdk/pepper_49/toolchain/mac_pnacl/bin/../x86_64-nacl/lib32/libnacl.a(environ.o)
 .debug_abbrev  0x000000000000151f      0x34b /Users/yeonwoo-kim/HealthHub/nacl_sdk/pepper_49/toolchain/mac_pnacl/bin/../x86_64-nacl/lib32/libnacl.a(malloc.o)
 .debug_abbrev  0x000000000000186a      0x136 /Users/yeonwoo-kim/HealthHub/nacl_sdk/pepper_49/toolchain/mac_pnacl/bin/../x86_64-nacl/lib32/libnacl.a(start.o)
 .debug_abbrev  0x00000000000019a0       0x39 /Users/yeonwoo-kim/HealthHub/nacl_sdk/pepper_49/toolchain/mac_pnacl/bin/../x86_64-nacl/lib32/libnacl.a(nacl_read_tp.o)
 .debug_abbrev  0x00000000000019d9       0x6d /Users/yeonwoo-kim/HealthHub/nacl_sdk/pepper_49/toolchain/mac_pnacl/bin/../x86_64-nacl/lib32/libnacl.a(pthread_initialize_minimal.o)
 .debug_abbrev  0x0000000000001a46      0x1d8 /Users/yeonwoo-kim/HealthHub/nacl_sdk/pepper_49/toolchain/mac_pnacl/bin/../x86_64-nacl/lib32/libnacl.a(tls.o)
 .debug_abbrev  0x0000000000001c1e      0x11f /Users/yeonwoo-kim/HealthHub/nacl_sdk/pepper_49/toolchain/mac_pnacl/bin/../x86_64-nacl/lib32/libnacl.a(nacl_irt_init.o)
 .debug_abbrev  0x0000000000001d3d       0x39 /Users/yeonwoo-kim/HealthHub/nacl_sdk/pepper_49/toolchain/mac_pnacl/bin/../x86_64-nacl/lib32/libnacl.a(nacl_tls_get.o)
 .debug_abbrev  0x0000000000001d76       0x53 /Users/yeonwoo-kim/HealthHub/nacl_sdk/pepper_49/toolchain/mac_pnacl/bin/../x86_64-nacl/lib32/libnacl.a(nacl_tls_init.o)
 .debug_abbrev  0x0000000000001dc9       0x6e /Users/yeonwoo-kim/HealthHub/nacl_sdk/pepper_49/toolchain/mac_pnacl/bin/../x86_64-nacl/lib32/libnacl.a(abort.o)
 .debug_abbrev  0x0000000000001e37       0x4e /Users/yeonwoo-kim/HealthHub/nacl_sdk/pepper_49/toolchain/mac_pnacl/bin/../x86_64-nacl/lib32/libnacl.a(sched_yield.o)
 .debug_abbrev  0x0000000000001e85       0x5d /Users/yeonwoo-kim/HealthHub/nacl_sdk/pepper_49/toolchain/mac_pnacl/bin/../x86_64-nacl/lib32/libnacl.a(sysconf.o)
 .debug_abbrev  0x0000000000001ee2       0x74 /Users/yeonwoo-kim/HealthHub/nacl_sdk/pepper_49/toolchain/mac_pnacl/bin/../x86_64-nacl/lib32/libcrt_common.a(lib_a-atexit.o)
 .debug_abbrev  0x0000000000001f56       0x43 /Users/yeonwoo-kim/HealthHub/nacl_sdk/pepper_49/toolchain/mac_pnacl/bin/../x86_64-nacl/lib32/libcrt_common.a(lib_a-errno.o)
 .debug_abbrev  0x0000000000001f99       0x4e /Users/yeonwoo-kim/HealthHub/nacl_sdk/pepper_49/toolchain/mac_pnacl/bin/../x86_64-nacl/lib32/libcrt_common.a(lib_a-exit.o)
 .debug_abbrev  0x0000000000001fe7      0x207 /Users/yeonwoo-kim/HealthHub/nacl_sdk/pepper_49/toolchain/mac_pnacl/bin/../x86_64-nacl/lib32/libcrt_common.a(lib_a-fflush.o)
 .debug_abbrev  0x00000000000021ee      0x2a9 /Users/yeonwoo-kim/HealthHub/nacl_sdk/pepper_49/toolchain/mac_pnacl/bin/../x86_64-nacl/lib32/libcrt_common.a(lib_a-findfp.o)
 .debug_abbrev  0x0000000000002497       0x63 /Users/yeonwoo-kim/HealthHub/nacl_sdk/pepper_49/toolchain/mac_pnacl/bin/../x86_64-nacl/lib32/libcrt_common.a(lib_a-fini.o)
 .debug_abbrev  0x00000000000024fa      0x175 /Users/yeonwoo-kim/HealthHub/nacl_sdk/pepper_49/toolchain/mac_pnacl/bin/../x86_64-nacl/lib32/libcrt_common.a(lib_a-fprintf.o)
 .debug_abbrev  0x000000000000266f      0x1cd /Users/yeonwoo-kim/HealthHub/nacl_sdk/pepper_49/toolchain/mac_pnacl/bin/../x86_64-nacl/lib32/libcrt_common.a(lib_a-fwalk.o)
 .debug_abbrev  0x000000000000283c      0x17e /Users/yeonwoo-kim/HealthHub/nacl_sdk/pepper_49/toolchain/mac_pnacl/bin/../x86_64-nacl/lib32/libcrt_common.a(lib_a-fwrite.o)
 .debug_abbrev  0x00000000000029ba       0x68 /Users/yeonwoo-kim/HealthHub/nacl_sdk/pepper_49/toolchain/mac_pnacl/bin/../x86_64-nacl/lib32/libcrt_common.a(lib_a-getenv.o)
 .debug_abbrev  0x0000000000002a22      0x185 /Users/yeonwoo-kim/HealthHub/nacl_sdk/pepper_49/toolchain/mac_pnacl/bin/../x86_64-nacl/lib32/libcrt_common.a(lib_a-getenv_r.o)
 .debug_abbrev  0x0000000000002ba7      0x15a /Users/yeonwoo-kim/HealthHub/nacl_sdk/pepper_49/toolchain/mac_pnacl/bin/../x86_64-nacl/lib32/libcrt_common.a(lib_a-impure.o)
 .debug_abbrev  0x0000000000002d01       0x63 /Users/yeonwoo-kim/HealthHub/nacl_sdk/pepper_49/toolchain/mac_pnacl/bin/../x86_64-nacl/lib32/libcrt_common.a(lib_a-init.o)
 .debug_abbrev  0x0000000000002d64       0x28 /Users/yeonwoo-kim/HealthHub/nacl_sdk/pepper_49/toolchain/mac_pnacl/bin/../x86_64-nacl/lib32/libcrt_common.a(lib_a-memcpy.o)
 .debug_abbrev  0x0000000000002d8c       0x28 /Users/yeonwoo-kim/HealthHub/nacl_sdk/pepper_49/toolchain/mac_pnacl/bin/../x86_64-nacl/lib32/libcrt_common.a(lib_a-memset.o)
 .debug_abbrev  0x0000000000002db4       0x83 /Users/yeonwoo-kim/HealthHub/nacl_sdk/pepper_49/toolchain/mac_pnacl/bin/../x86_64-nacl/lib32/libcrt_common.a(lib_a-sleep.o)
 .debug_abbrev  0x0000000000002e37      0x178 /Users/yeonwoo-kim/HealthHub/nacl_sdk/pepper_49/toolchain/mac_pnacl/bin/../x86_64-nacl/lib32/libcrt_common.a(lib_a-stdio.o)
 .debug_abbrev  0x0000000000002faf       0x85 /Users/yeonwoo-kim/HealthHub/nacl_sdk/pepper_49/toolchain/mac_pnacl/bin/../x86_64-nacl/lib32/libcrt_common.a(lib_a-strcat.o)
 .debug_abbrev  0x0000000000003034       0x68 /Users/yeonwoo-kim/HealthHub/nacl_sdk/pepper_49/toolchain/mac_pnacl/bin/../x86_64-nacl/lib32/libcrt_common.a(lib_a-strcmp.o)
 .debug_abbrev  0x000000000000309c       0x68 /Users/yeonwoo-kim/HealthHub/nacl_sdk/pepper_49/toolchain/mac_pnacl/bin/../x86_64-nacl/lib32/libcrt_common.a(lib_a-strcpy.o)
 .debug_abbrev  0x0000000000003104       0x28 /Users/yeonwoo-kim/HealthHub/nacl_sdk/pepper_49/toolchain/mac_pnacl/bin/../x86_64-nacl/lib32/libcrt_common.a(lib_a-strlen.o)
 .debug_abbrev  0x000000000000312c       0x75 /Users/yeonwoo-kim/HealthHub/nacl_sdk/pepper_49/toolchain/mac_pnacl/bin/../x86_64-nacl/lib32/libcrt_common.a(lib_a-strncmp.o)
 .debug_abbrev  0x00000000000031a1      0x246 /Users/yeonwoo-kim/HealthHub/nacl_sdk/pepper_49/toolchain/mac_pnacl/bin/../x86_64-nacl/lib32/libcrt_common.a(lib_a-vfprintf.o)
 .debug_abbrev  0x00000000000033e7      0x1bb /Users/yeonwoo-kim/HealthHub/nacl_sdk/pepper_49/toolchain/mac_pnacl/bin/../x86_64-nacl/lib32/libcrt_common.a(lib_a-vsnprintf.o)
 .debug_abbrev  0x00000000000035a2      0x1cd /Users/yeonwoo-kim/HealthHub/nacl_sdk/pepper_49/toolchain/mac_pnacl/bin/../x86_64-nacl/lib32/libcrt_common.a(lib_a-vsprintf.o)
 .debug_abbrev  0x000000000000376f      0x17f /Users/yeonwoo-kim/HealthHub/nacl_sdk/pepper_49/toolchain/mac_pnacl/bin/../x86_64-nacl/lib32/libcrt_common.a(lib_a-wcrtomb.o)
 .debug_abbrev  0x00000000000038ee      0x154 /Users/yeonwoo-kim/HealthHub/nacl_sdk/pepper_49/toolchain/mac_pnacl/bin/../x86_64-nacl/lib32/libcrt_common.a(lib_a-wcsrtombs.o)
 .debug_abbrev  0x0000000000003a42      0x17c /Users/yeonwoo-kim/HealthHub/nacl_sdk/pepper_49/toolchain/mac_pnacl/bin/../x86_64-nacl/lib32/libcrt_common.a(lib_a-wctomb_r.o)
 .debug_abbrev  0x0000000000003bbe      0x165 /Users/yeonwoo-kim/HealthHub/nacl_sdk/pepper_49/toolchain/mac_pnacl/bin/../x86_64-nacl/lib32/libcrt_common.a(lib_a-wsetup.o)
 .debug_abbrev  0x0000000000003d23       0xe3 /Users/yeonwoo-kim/HealthHub/nacl_sdk/pepper_49/toolchain/mac_pnacl/bin/../x86_64-nacl/lib32/libcrt_common.a(lib_a-__atexit.o)
 .debug_abbrev  0x0000000000003e06       0xfe /Users/yeonwoo-kim/HealthHub/nacl_sdk/pepper_49/toolchain/mac_pnacl/bin/../x86_64-nacl/lib32/libcrt_common.a(lib_a-__call_atexit.o)
 .debug_abbrev  0x0000000000003f04      0x19d /Users/yeonwoo-kim/HealthHub/nacl_sdk/pepper_49/toolchain/mac_pnacl/bin/../x86_64-nacl/lib32/libcrt_common.a(lib_a-dtoa.o)
 .debug_abbrev  0x00000000000040a1      0x158 /Users/yeonwoo-kim/HealthHub/nacl_sdk/pepper_49/toolchain/mac_pnacl/bin/../x86_64-nacl/lib32/libcrt_common.a(lib_a-envlock.o)
 .debug_abbrev  0x00000000000041f9      0x165 /Users/yeonwoo-kim/HealthHub/nacl_sdk/pepper_49/toolchain/mac_pnacl/bin/../x86_64-nacl/lib32/libcrt_common.a(lib_a-fclose.o)
 .debug_abbrev  0x000000000000435e      0x177 /Users/yeonwoo-kim/HealthHub/nacl_sdk/pepper_49/toolchain/mac_pnacl/bin/../x86_64-nacl/lib32/libcrt_common.a(lib_a-fvwrite.o)
 .debug_abbrev  0x00000000000044d5      0x224 /Users/yeonwoo-kim/HealthHub/nacl_sdk/pepper_49/toolchain/mac_pnacl/bin/../x86_64-nacl/lib32/libcrt_common.a(lib_a-locale.o)
 .debug_abbrev  0x00000000000046f9      0x169 /Users/yeonwoo-kim/HealthHub/nacl_sdk/pepper_49/toolchain/mac_pnacl/bin/../x86_64-nacl/lib32/libcrt_common.a(lib_a-makebuf.o)
 .debug_abbrev  0x0000000000004862      0x20a /Users/yeonwoo-kim/HealthHub/nacl_sdk/pepper_49/toolchain/mac_pnacl/bin/../x86_64-nacl/lib32/libcrt_common.a(lib_a-mbtowc_r.o)
 .debug_abbrev  0x0000000000004a6c       0x28 /Users/yeonwoo-kim/HealthHub/nacl_sdk/pepper_49/toolchain/mac_pnacl/bin/../x86_64-nacl/lib32/libcrt_common.a(lib_a-memchr.o)
 .debug_abbrev  0x0000000000004a94       0x28 /Users/yeonwoo-kim/HealthHub/nacl_sdk/pepper_49/toolchain/mac_pnacl/bin/../x86_64-nacl/lib32/libcrt_common.a(lib_a-memmove.o)
 .debug_abbrev  0x0000000000004abc      0x2d5 /Users/yeonwoo-kim/HealthHub/nacl_sdk/pepper_49/toolchain/mac_pnacl/bin/../x86_64-nacl/lib32/libcrt_common.a(lib_a-mprec.o)
 .debug_abbrev  0x0000000000004d91       0xaf /Users/yeonwoo-kim/HealthHub/nacl_sdk/pepper_49/toolchain/mac_pnacl/bin/../x86_64-nacl/lib32/libcrt_common.a(lib_a-s_fpclassify.o)
 .debug_abbrev  0x0000000000004e40       0xca /Users/yeonwoo-kim/HealthHub/nacl_sdk/pepper_49/toolchain/mac_pnacl/bin/../x86_64-nacl/lib32/libcrt_common.a(lib_a-s_frexp.o)
 .debug_abbrev  0x0000000000004f0a       0x85 /Users/yeonwoo-kim/HealthHub/nacl_sdk/pepper_49/toolchain/mac_pnacl/bin/../x86_64-nacl/lib32/libcrt_common.a(lib_a-strcasecmp.o)
 .debug_abbrev  0x0000000000004f8f       0x28 /Users/yeonwoo-kim/HealthHub/nacl_sdk/pepper_49/toolchain/mac_pnacl/bin/../x86_64-nacl/lib32/libcrt_common.a(lib_a-strchr.o)
 .debug_abbrev  0x0000000000004fb7       0x75 /Users/yeonwoo-kim/HealthHub/nacl_sdk/pepper_49/toolchain/mac_pnacl/bin/../x86_64-nacl/lib32/libcrt_common.a(lib_a-strlcpy.o)
 .debug_abbrev  0x000000000000502c       0xa1 /Users/yeonwoo-kim/HealthHub/nacl_sdk/pepper_49/toolchain/mac_pnacl/bin/../x86_64-nacl/lib32/libcrt_common.a(lib_a-strncasecmp.o)
 .debug_abbrev  0x00000000000050cd       0x7c /Users/yeonwoo-kim/HealthHub/nacl_sdk/pepper_49/toolchain/mac_pnacl/bin/../x86_64-nacl/lib32/libcrt_common.a(lib_a-strncpy.o)
 .debug_abbrev  0x0000000000005149      0x17d /Users/yeonwoo-kim/HealthHub/nacl_sdk/pepper_49/toolchain/mac_pnacl/bin/../x86_64-nacl/lib32/libcrt_common.a(lib_a-strtol.o)
 .debug_abbrev  0x00000000000052c6      0x225 /Users/yeonwoo-kim/HealthHub/nacl_sdk/pepper_49/toolchain/mac_pnacl/bin/../x86_64-nacl/lib32/libcrt_common.a(lib_a-svfprintf.o)
 .debug_abbrev  0x00000000000054eb      0x23b /Users/yeonwoo-kim/HealthHub/nacl_sdk/pepper_49/toolchain/mac_pnacl/bin/../x86_64-nacl/lib32/libcrt_common.a(lib_a-vfiprintf.o)
 .debug_abbrev  0x0000000000005726      0x186 /Users/yeonwoo-kim/HealthHub/nacl_sdk/pepper_49/toolchain/mac_pnacl/bin/../x86_64-nacl/lib32/libcrt_common.a(lib_a-wcsnrtombs.o)
 .debug_abbrev  0x00000000000058ac       0x92 /Users/yeonwoo-kim/HealthHub/nacl_sdk/pepper_49/toolchain/mac_pnacl/bin/../x86_64-nacl/lib32/libcrt_common.a(lib_a-ctype_.o)
 .debug_abbrev  0x000000000000593e      0x1c2 /Users/yeonwoo-kim/HealthHub/nacl_sdk/pepper_49/toolchain/mac_pnacl/bin/../x86_64-nacl/lib32/libcrt_common.a(lib_a-fputwc.o)
 .debug_abbrev  0x0000000000005b00      0x1bf /Users/yeonwoo-kim/HealthHub/nacl_sdk/pepper_49/toolchain/mac_pnacl/bin/../x86_64-nacl/lib32/libcrt_common.a(lib_a-svfiprintf.o)
 .debug_abbrev  0x0000000000005cbf      0x165 /Users/yeonwoo-kim/HealthHub/nacl_sdk/pepper_49/toolchain/mac_pnacl/bin/../x86_64-nacl/lib32/libcrt_common.a(lib_a-wbuf.o)
 .debug_abbrev  0x0000000000005e24       0x5d /Users/yeonwoo-kim/HealthHub/nacl_sdk/pepper_49/toolchain/mac_pnacl/bin/../x86_64-nacl/lib32/libnacl.a(close.o)
 .debug_abbrev  0x0000000000005e81       0x8d /Users/yeonwoo-kim/HealthHub/nacl_sdk/pepper_49/toolchain/mac_pnacl/bin/../x86_64-nacl/lib32/libnacl.a(fstat.o)
 .debug_abbrev  0x0000000000005f0e       0x5d /Users/yeonwoo-kim/HealthHub/nacl_sdk/pepper_49/toolchain/mac_pnacl/bin/../x86_64-nacl/lib32/libnacl.a(isatty.o)
 .debug_abbrev  0x0000000000005f6b       0x6a /Users/yeonwoo-kim/HealthHub/nacl_sdk/pepper_49/toolchain/mac_pnacl/bin/../x86_64-nacl/lib32/libnacl.a(lseek.o)
 .debug_abbrev  0x0000000000005fd5       0x94 /Users/yeonwoo-kim/HealthHub/nacl_sdk/pepper_49/toolchain/mac_pnacl/bin/../x86_64-nacl/lib32/libnacl.a(nanosleep.o)
 .debug_abbrev  0x0000000000006069       0x32 /Users/yeonwoo-kim/HealthHub/nacl_sdk/pepper_49/toolchain/mac_pnacl/bin/../x86_64-nacl/lib32/libnacl.a(nacl_irt_fdio.o)
 .debug_abbrev  0x000000000000609b       0x6f /Users/yeonwoo-kim/HealthHub/nacl_sdk/pepper_49/toolchain/mac_pnacl/bin/../x86_64-nacl/lib32/libnacl.a(read.o)
 .debug_abbrev  0x000000000000610a      0x477 /Users/yeonwoo-kim/HealthHub/nacl_sdk/pepper_49/toolchain/mac_pnacl/bin/../lib/clang/3.7.0/lib/i686-nacl/libgcc_eh.a(unwind-dw2-fde-glibc.o)

.debug_line     0x0000000000000000    0x15357
 *(.debug_line .debug_line.* .debug_line_end)
 .debug_line    0x0000000000000000      0x453 clang-newlib/Release/debugging_x86_32.o
 .debug_line    0x0000000000000453      0x4c2 /Users/yeonwoo-kim/HealthHub/nacl_sdk/pepper_49/lib/clang-newlib_x86_32/Release/liberror_handling.a(error_handling_x86_32.o)
 .debug_line    0x0000000000000915      0x189 /Users/yeonwoo-kim/HealthHub/nacl_sdk/pepper_49/lib/clang-newlib_x86_32/Release/liberror_handling.a(string_stream_x86_32.o)
 .debug_line    0x0000000000000a9e       0x45 /Users/yeonwoo-kim/HealthHub/nacl_sdk/pepper_49/toolchain/mac_pnacl/bin/../x86_64-nacl/lib32/libppapi_stub.a(plugin_main_irt_21ce9d26.o)
 .debug_line    0x0000000000000ae3      0x1ac /Users/yeonwoo-kim/HealthHub/nacl_sdk/pepper_49/toolchain/mac_pnacl/bin/../x86_64-nacl/lib32/libppapi_stub.a(ppapi_plugin_main_399d0cf7.o)
 .debug_line    0x0000000000000c8f      0x368 /Users/yeonwoo-kim/HealthHub/nacl_sdk/pepper_49/toolchain/mac_pnacl/bin/../x86_64-nacl/lib32/libppapi_stub.a(ppapi_plugin_start_8da67623.o)
 .debug_line    0x0000000000000ff7      0x1dd /Users/yeonwoo-kim/HealthHub/nacl_sdk/pepper_49/toolchain/mac_pnacl/bin/../x86_64-nacl/lib32/libppapi_stub.a(thread_creator_ccf263e1.o)
 .debug_line    0x00000000000011d4      0xbed /Users/yeonwoo-kim/HealthHub/nacl_sdk/pepper_49/toolchain/mac_pnacl/bin/../x86_64-nacl/lib32/libpthread.a(nc_thread.o)
 .debug_line    0x0000000000001dc1      0x444 /Users/yeonwoo-kim/HealthHub/nacl_sdk/pepper_49/toolchain/mac_pnacl/bin/../x86_64-nacl/lib32/libpthread.a(nc_mutex.o)
 .debug_line    0x0000000000002205      0x37a /Users/yeonwoo-kim/HealthHub/nacl_sdk/pepper_49/toolchain/mac_pnacl/bin/../x86_64-nacl/lib32/libpthread.a(nc_condvar.o)
 .debug_line    0x000000000000257f      0x1a7 /Users/yeonwoo-kim/HealthHub/nacl_sdk/pepper_49/toolchain/mac_pnacl/bin/../x86_64-nacl/lib32/libpthread.a(valgrind_annotations.o)
 .debug_line    0x0000000000002726      0x169 /Users/yeonwoo-kim/HealthHub/nacl_sdk/pepper_49/toolchain/mac_pnacl/bin/../x86_64-nacl/lib32/libpthread.a(nc_init_irt.o)
 .debug_line    0x000000000000288f      0x40b /Users/yeonwoo-kim/HealthHub/nacl_sdk/pepper_49/toolchain/mac_pnacl/bin/../x86_64-nacl/lib32/libnacl.a(nacl_irt.o)
 .debug_line    0x0000000000002c9a       0x55 /Users/yeonwoo-kim/HealthHub/nacl_sdk/pepper_49/toolchain/mac_pnacl/bin/../x86_64-nacl/lib32/libnacl.a(_exit.o)
 .debug_line    0x0000000000002cef      0x256 /Users/yeonwoo-kim/HealthHub/nacl_sdk/pepper_49/toolchain/mac_pnacl/bin/../x86_64-nacl/lib32/libnacl.a(mmap.o)
 .debug_line    0x0000000000002f45      0x100 /Users/yeonwoo-kim/HealthHub/nacl_sdk/pepper_49/toolchain/mac_pnacl/bin/../x86_64-nacl/lib32/libnacl.a(munmap.o)
 .debug_line    0x0000000000003045      0x104 /Users/yeonwoo-kim/HealthHub/nacl_sdk/pepper_49/toolchain/mac_pnacl/bin/../x86_64-nacl/lib32/libnacl.a(nacl_interface_query.o)
 .debug_line    0x0000000000003149      0x107 /Users/yeonwoo-kim/HealthHub/nacl_sdk/pepper_49/toolchain/mac_pnacl/bin/../x86_64-nacl/lib32/libnacl.a(write.o)
 .debug_line    0x0000000000003250       0x43 /Users/yeonwoo-kim/HealthHub/nacl_sdk/pepper_49/toolchain/mac_pnacl/bin/../x86_64-nacl/lib32/libnacl.a(environ.o)
 .debug_line    0x0000000000003293     0x26b1 /Users/yeonwoo-kim/HealthHub/nacl_sdk/pepper_49/toolchain/mac_pnacl/bin/../x86_64-nacl/lib32/libnacl.a(malloc.o)
 .debug_line    0x0000000000005944      0x278 /Users/yeonwoo-kim/HealthHub/nacl_sdk/pepper_49/toolchain/mac_pnacl/bin/../x86_64-nacl/lib32/libnacl.a(start.o)
 .debug_line    0x0000000000005bbc       0x55 /Users/yeonwoo-kim/HealthHub/nacl_sdk/pepper_49/toolchain/mac_pnacl/bin/../x86_64-nacl/lib32/libnacl.a(nacl_read_tp.o)
 .debug_line    0x0000000000005c11      0x115 /Users/yeonwoo-kim/HealthHub/nacl_sdk/pepper_49/toolchain/mac_pnacl/bin/../x86_64-nacl/lib32/libnacl.a(pthread_initialize_minimal.o)
 .debug_line    0x0000000000005d26      0x41b /Users/yeonwoo-kim/HealthHub/nacl_sdk/pepper_49/toolchain/mac_pnacl/bin/../x86_64-nacl/lib32/libnacl.a(tls.o)
 .debug_line    0x0000000000006141      0x33d /Users/yeonwoo-kim/HealthHub/nacl_sdk/pepper_49/toolchain/mac_pnacl/bin/../x86_64-nacl/lib32/libnacl.a(nacl_irt_init.o)
 .debug_line    0x000000000000647e       0x59 /Users/yeonwoo-kim/HealthHub/nacl_sdk/pepper_49/toolchain/mac_pnacl/bin/../x86_64-nacl/lib32/libnacl.a(nacl_tls_get.o)
 .debug_line    0x00000000000064d7       0x5a /Users/yeonwoo-kim/HealthHub/nacl_sdk/pepper_49/toolchain/mac_pnacl/bin/../x86_64-nacl/lib32/libnacl.a(nacl_tls_init.o)
 .debug_line    0x0000000000006531       0x50 /Users/yeonwoo-kim/HealthHub/nacl_sdk/pepper_49/toolchain/mac_pnacl/bin/../x86_64-nacl/lib32/libnacl.a(abort.o)
 .debug_line    0x0000000000006581       0x69 /Users/yeonwoo-kim/HealthHub/nacl_sdk/pepper_49/toolchain/mac_pnacl/bin/../x86_64-nacl/lib32/libnacl.a(sched_yield.o)
 .debug_line    0x00000000000065ea       0x6a /Users/yeonwoo-kim/HealthHub/nacl_sdk/pepper_49/toolchain/mac_pnacl/bin/../x86_64-nacl/lib32/libnacl.a(sysconf.o)
 .debug_line    0x0000000000006654       0x86 /Users/yeonwoo-kim/HealthHub/nacl_sdk/pepper_49/toolchain/mac_pnacl/bin/../x86_64-nacl/lib32/libcrt_common.a(lib_a-atexit.o)
 .debug_line    0x00000000000066da       0x74 /Users/yeonwoo-kim/HealthHub/nacl_sdk/pepper_49/toolchain/mac_pnacl/bin/../x86_64-nacl/lib32/libcrt_common.a(lib_a-errno.o)
 .debug_line    0x000000000000674e       0x83 /Users/yeonwoo-kim/HealthHub/nacl_sdk/pepper_49/toolchain/mac_pnacl/bin/../x86_64-nacl/lib32/libcrt_common.a(lib_a-exit.o)
 .debug_line    0x00000000000067d1      0x4e9 /Users/yeonwoo-kim/HealthHub/nacl_sdk/pepper_49/toolchain/mac_pnacl/bin/../x86_64-nacl/lib32/libcrt_common.a(lib_a-fflush.o)
 .debug_line    0x0000000000006cba      0x680 /Users/yeonwoo-kim/HealthHub/nacl_sdk/pepper_49/toolchain/mac_pnacl/bin/../x86_64-nacl/lib32/libcrt_common.a(lib_a-findfp.o)
 .debug_line    0x000000000000733a      0x126 /Users/yeonwoo-kim/HealthHub/nacl_sdk/pepper_49/toolchain/mac_pnacl/bin/../x86_64-nacl/lib32/libcrt_common.a(lib_a-fini.o)
 .debug_line    0x0000000000007460      0x380 /Users/yeonwoo-kim/HealthHub/nacl_sdk/pepper_49/toolchain/mac_pnacl/bin/../x86_64-nacl/lib32/libcrt_common.a(lib_a-fprintf.o)
 .debug_line    0x00000000000077e0      0x3ff /Users/yeonwoo-kim/HealthHub/nacl_sdk/pepper_49/toolchain/mac_pnacl/bin/../x86_64-nacl/lib32/libcrt_common.a(lib_a-fwalk.o)
 .debug_line    0x0000000000007bdf      0x3e1 /Users/yeonwoo-kim/HealthHub/nacl_sdk/pepper_49/toolchain/mac_pnacl/bin/../x86_64-nacl/lib32/libcrt_common.a(lib_a-fwrite.o)
 .debug_line    0x0000000000007fc0       0x9a /Users/yeonwoo-kim/HealthHub/nacl_sdk/pepper_49/toolchain/mac_pnacl/bin/../x86_64-nacl/lib32/libcrt_common.a(lib_a-getenv.o)
 .debug_line    0x000000000000805a      0x35b /Users/yeonwoo-kim/HealthHub/nacl_sdk/pepper_49/toolchain/mac_pnacl/bin/../x86_64-nacl/lib32/libcrt_common.a(lib_a-getenv_r.o)
 .debug_line    0x00000000000083b5      0x2e9 /Users/yeonwoo-kim/HealthHub/nacl_sdk/pepper_49/toolchain/mac_pnacl/bin/../x86_64-nacl/lib32/libcrt_common.a(lib_a-impure.o)
 .debug_line    0x000000000000869e      0x13e /Users/yeonwoo-kim/HealthHub/nacl_sdk/pepper_49/toolchain/mac_pnacl/bin/../x86_64-nacl/lib32/libcrt_common.a(lib_a-init.o)
 .debug_line    0x00000000000087dc       0xa8 /Users/yeonwoo-kim/HealthHub/nacl_sdk/pepper_49/toolchain/mac_pnacl/bin/../x86_64-nacl/lib32/libcrt_common.a(lib_a-memcpy.o)
 .debug_line    0x0000000000008884       0xc1 /Users/yeonwoo-kim/HealthHub/nacl_sdk/pepper_49/toolchain/mac_pnacl/bin/../x86_64-nacl/lib32/libcrt_common.a(lib_a-memset.o)
 .debug_line    0x0000000000008945      0x1ae /Users/yeonwoo-kim/HealthHub/nacl_sdk/pepper_49/toolchain/mac_pnacl/bin/../x86_64-nacl/lib32/libcrt_common.a(lib_a-sleep.o)
 .debug_line    0x0000000000008af3      0x3f3 /Users/yeonwoo-kim/HealthHub/nacl_sdk/pepper_49/toolchain/mac_pnacl/bin/../x86_64-nacl/lib32/libcrt_common.a(lib_a-stdio.o)
 .debug_line    0x0000000000008ee6       0x92 /Users/yeonwoo-kim/HealthHub/nacl_sdk/pepper_49/toolchain/mac_pnacl/bin/../x86_64-nacl/lib32/libcrt_common.a(lib_a-strcat.o)
 .debug_line    0x0000000000008f78       0xc1 /Users/yeonwoo-kim/HealthHub/nacl_sdk/pepper_49/toolchain/mac_pnacl/bin/../x86_64-nacl/lib32/libcrt_common.a(lib_a-strcmp.o)
 .debug_line    0x0000000000009039       0xd0 /Users/yeonwoo-kim/HealthHub/nacl_sdk/pepper_49/toolchain/mac_pnacl/bin/../x86_64-nacl/lib32/libcrt_common.a(lib_a-strcpy.o)
 .debug_line    0x0000000000009109       0xb8 /Users/yeonwoo-kim/HealthHub/nacl_sdk/pepper_49/toolchain/mac_pnacl/bin/../x86_64-nacl/lib32/libcrt_common.a(lib_a-strlen.o)
 .debug_line    0x00000000000091c1      0x1a2 /Users/yeonwoo-kim/HealthHub/nacl_sdk/pepper_49/toolchain/mac_pnacl/bin/../x86_64-nacl/lib32/libcrt_common.a(lib_a-strncmp.o)
 .debug_line    0x0000000000009363     0x137d /Users/yeonwoo-kim/HealthHub/nacl_sdk/pepper_49/toolchain/mac_pnacl/bin/../x86_64-nacl/lib32/libcrt_common.a(lib_a-vfprintf.o)
 .debug_line    0x000000000000a6e0      0x3ee /Users/yeonwoo-kim/HealthHub/nacl_sdk/pepper_49/toolchain/mac_pnacl/bin/../x86_64-nacl/lib32/libcrt_common.a(lib_a-vsnprintf.o)
 .debug_line    0x000000000000aace      0x3b9 /Users/yeonwoo-kim/HealthHub/nacl_sdk/pepper_49/toolchain/mac_pnacl/bin/../x86_64-nacl/lib32/libcrt_common.a(lib_a-vsprintf.o)
 .debug_line    0x000000000000ae87      0x3c2 /Users/yeonwoo-kim/HealthHub/nacl_sdk/pepper_49/toolchain/mac_pnacl/bin/../x86_64-nacl/lib32/libcrt_common.a(lib_a-wcrtomb.o)
 .debug_line    0x000000000000b249      0x376 /Users/yeonwoo-kim/HealthHub/nacl_sdk/pepper_49/toolchain/mac_pnacl/bin/../x86_64-nacl/lib32/libcrt_common.a(lib_a-wcsrtombs.o)
 .debug_line    0x000000000000b5bf      0x538 /Users/yeonwoo-kim/HealthHub/nacl_sdk/pepper_49/toolchain/mac_pnacl/bin/../x86_64-nacl/lib32/libcrt_common.a(lib_a-wctomb_r.o)
 .debug_line    0x000000000000baf7      0x3dd /Users/yeonwoo-kim/HealthHub/nacl_sdk/pepper_49/toolchain/mac_pnacl/bin/../x86_64-nacl/lib32/libcrt_common.a(lib_a-wsetup.o)
 .debug_line    0x000000000000bed4      0x16c /Users/yeonwoo-kim/HealthHub/nacl_sdk/pepper_49/toolchain/mac_pnacl/bin/../x86_64-nacl/lib32/libcrt_common.a(lib_a-__atexit.o)
 .debug_line    0x000000000000c040      0x181 /Users/yeonwoo-kim/HealthHub/nacl_sdk/pepper_49/toolchain/mac_pnacl/bin/../x86_64-nacl/lib32/libcrt_common.a(lib_a-__call_atexit.o)
 .debug_line    0x000000000000c1c1      0xa27 /Users/yeonwoo-kim/HealthHub/nacl_sdk/pepper_49/toolchain/mac_pnacl/bin/../x86_64-nacl/lib32/libcrt_common.a(lib_a-dtoa.o)
 .debug_line    0x000000000000cbe8      0x2ef /Users/yeonwoo-kim/HealthHub/nacl_sdk/pepper_49/toolchain/mac_pnacl/bin/../x86_64-nacl/lib32/libcrt_common.a(lib_a-envlock.o)
 .debug_line    0x000000000000ced7      0x3f9 /Users/yeonwoo-kim/HealthHub/nacl_sdk/pepper_49/toolchain/mac_pnacl/bin/../x86_64-nacl/lib32/libcrt_common.a(lib_a-fclose.o)
 .debug_line    0x000000000000d2d0      0x542 /Users/yeonwoo-kim/HealthHub/nacl_sdk/pepper_49/toolchain/mac_pnacl/bin/../x86_64-nacl/lib32/libcrt_common.a(lib_a-fvwrite.o)
 .debug_line    0x000000000000d812      0x8b8 /Users/yeonwoo-kim/HealthHub/nacl_sdk/pepper_49/toolchain/mac_pnacl/bin/../x86_64-nacl/lib32/libcrt_common.a(lib_a-locale.o)
 .debug_line    0x000000000000e0ca      0x491 /Users/yeonwoo-kim/HealthHub/nacl_sdk/pepper_49/toolchain/mac_pnacl/bin/../x86_64-nacl/lib32/libcrt_common.a(lib_a-makebuf.o)
 .debug_line    0x000000000000e55b      0x701 /Users/yeonwoo-kim/HealthHub/nacl_sdk/pepper_49/toolchain/mac_pnacl/bin/../x86_64-nacl/lib32/libcrt_common.a(lib_a-mbtowc_r.o)
 .debug_line    0x000000000000ec5c       0xc5 /Users/yeonwoo-kim/HealthHub/nacl_sdk/pepper_49/toolchain/mac_pnacl/bin/../x86_64-nacl/lib32/libcrt_common.a(lib_a-memchr.o)
 .debug_line    0x000000000000ed21       0xd2 /Users/yeonwoo-kim/HealthHub/nacl_sdk/pepper_49/toolchain/mac_pnacl/bin/../x86_64-nacl/lib32/libcrt_common.a(lib_a-memmove.o)
 .debug_line    0x000000000000edf3      0xf10 /Users/yeonwoo-kim/HealthHub/nacl_sdk/pepper_49/toolchain/mac_pnacl/bin/../x86_64-nacl/lib32/libcrt_common.a(lib_a-mprec.o)
 .debug_line    0x000000000000fd03      0x132 /Users/yeonwoo-kim/HealthHub/nacl_sdk/pepper_49/toolchain/mac_pnacl/bin/../x86_64-nacl/lib32/libcrt_common.a(lib_a-s_fpclassify.o)
 .debug_line    0x000000000000fe35      0x194 /Users/yeonwoo-kim/HealthHub/nacl_sdk/pepper_49/toolchain/mac_pnacl/bin/../x86_64-nacl/lib32/libcrt_common.a(lib_a-s_frexp.o)
 .debug_line    0x000000000000ffc9       0x9c /Users/yeonwoo-kim/HealthHub/nacl_sdk/pepper_49/toolchain/mac_pnacl/bin/../x86_64-nacl/lib32/libcrt_common.a(lib_a-strcasecmp.o)
 .debug_line    0x0000000000010065       0xec /Users/yeonwoo-kim/HealthHub/nacl_sdk/pepper_49/toolchain/mac_pnacl/bin/../x86_64-nacl/lib32/libcrt_common.a(lib_a-strchr.o)
 .debug_line    0x0000000000010151      0x159 /Users/yeonwoo-kim/HealthHub/nacl_sdk/pepper_49/toolchain/mac_pnacl/bin/../x86_64-nacl/lib32/libcrt_common.a(lib_a-strlcpy.o)
 .debug_line    0x00000000000102aa      0x14c /Users/yeonwoo-kim/HealthHub/nacl_sdk/pepper_49/toolchain/mac_pnacl/bin/../x86_64-nacl/lib32/libcrt_common.a(lib_a-strncasecmp.o)
 .debug_line    0x00000000000103f6      0x18c /Users/yeonwoo-kim/HealthHub/nacl_sdk/pepper_49/toolchain/mac_pnacl/bin/../x86_64-nacl/lib32/libcrt_common.a(lib_a-strncpy.o)
 .debug_line    0x0000000000010582      0x383 /Users/yeonwoo-kim/HealthHub/nacl_sdk/pepper_49/toolchain/mac_pnacl/bin/../x86_64-nacl/lib32/libcrt_common.a(lib_a-strtol.o)
 .debug_line    0x0000000000010905     0x1249 /Users/yeonwoo-kim/HealthHub/nacl_sdk/pepper_49/toolchain/mac_pnacl/bin/../x86_64-nacl/lib32/libcrt_common.a(lib_a-svfprintf.o)
 .debug_line    0x0000000000011b4e     0x1136 /Users/yeonwoo-kim/HealthHub/nacl_sdk/pepper_49/toolchain/mac_pnacl/bin/../x86_64-nacl/lib32/libcrt_common.a(lib_a-vfiprintf.o)
 .debug_line    0x0000000000012c84      0x40a /Users/yeonwoo-kim/HealthHub/nacl_sdk/pepper_49/toolchain/mac_pnacl/bin/../x86_64-nacl/lib32/libcrt_common.a(lib_a-wcsnrtombs.o)
 .debug_line    0x000000000001308e       0x77 /Users/yeonwoo-kim/HealthHub/nacl_sdk/pepper_49/toolchain/mac_pnacl/bin/../x86_64-nacl/lib32/libcrt_common.a(lib_a-ctype_.o)
 .debug_line    0x0000000000013105      0x414 /Users/yeonwoo-kim/HealthHub/nacl_sdk/pepper_49/toolchain/mac_pnacl/bin/../x86_64-nacl/lib32/libcrt_common.a(lib_a-fputwc.o)
 .debug_line    0x0000000000013519      0xbd7 /Users/yeonwoo-kim/HealthHub/nacl_sdk/pepper_49/toolchain/mac_pnacl/bin/../x86_64-nacl/lib32/libcrt_common.a(lib_a-svfiprintf.o)
 .debug_line    0x00000000000140f0      0x3ee /Users/yeonwoo-kim/HealthHub/nacl_sdk/pepper_49/toolchain/mac_pnacl/bin/../x86_64-nacl/lib32/libcrt_common.a(lib_a-wbuf.o)
 .debug_line    0x00000000000144de       0x63 /Users/yeonwoo-kim/HealthHub/nacl_sdk/pepper_49/toolchain/mac_pnacl/bin/../x86_64-nacl/lib32/libnacl.a(close.o)
 .debug_line    0x0000000000014541      0x2e5 /Users/yeonwoo-kim/HealthHub/nacl_sdk/pepper_49/toolchain/mac_pnacl/bin/../x86_64-nacl/lib32/libnacl.a(fstat.o)
 .debug_line    0x0000000000014826       0x6e /Users/yeonwoo-kim/HealthHub/nacl_sdk/pepper_49/toolchain/mac_pnacl/bin/../x86_64-nacl/lib32/libnacl.a(isatty.o)
 .debug_line    0x0000000000014894      0x1bc /Users/yeonwoo-kim/HealthHub/nacl_sdk/pepper_49/toolchain/mac_pnacl/bin/../x86_64-nacl/lib32/libnacl.a(lseek.o)
 .debug_line    0x0000000000014a50      0x11b /Users/yeonwoo-kim/HealthHub/nacl_sdk/pepper_49/toolchain/mac_pnacl/bin/../x86_64-nacl/lib32/libnacl.a(nanosleep.o)
 .debug_line    0x0000000000014b6b       0x6a /Users/yeonwoo-kim/HealthHub/nacl_sdk/pepper_49/toolchain/mac_pnacl/bin/../x86_64-nacl/lib32/libnacl.a(nacl_irt_fdio.o)
 .debug_line    0x0000000000014bd5      0x106 /Users/yeonwoo-kim/HealthHub/nacl_sdk/pepper_49/toolchain/mac_pnacl/bin/../x86_64-nacl/lib32/libnacl.a(read.o)
 .debug_line    0x0000000000014cdb      0x67c /Users/yeonwoo-kim/HealthHub/nacl_sdk/pepper_49/toolchain/mac_pnacl/bin/../lib/clang/3.7.0/lib/i686-nacl/libgcc_eh.a(unwind-dw2-fde-glibc.o)

.debug_frame    0x0000000000000000     0x16fc
 *(.debug_frame)
 .debug_frame   0x0000000000000000      0x1c4 clang-newlib/Release/debugging_x86_32.o
 .debug_frame   0x00000000000001c4       0xf8 /Users/yeonwoo-kim/HealthHub/nacl_sdk/pepper_49/lib/clang-newlib_x86_32/Release/liberror_handling.a(error_handling_x86_32.o)
 .debug_frame   0x00000000000002bc       0x80 /Users/yeonwoo-kim/HealthHub/nacl_sdk/pepper_49/lib/clang-newlib_x86_32/Release/liberror_handling.a(string_stream_x86_32.o)
 .debug_frame   0x000000000000033c       0x2c /Users/yeonwoo-kim/HealthHub/nacl_sdk/pepper_49/toolchain/mac_pnacl/bin/../x86_64-nacl/lib32/libppapi_stub.a(plugin_main_irt_21ce9d26.o)
 .debug_frame   0x0000000000000368       0x30 /Users/yeonwoo-kim/HealthHub/nacl_sdk/pepper_49/toolchain/mac_pnacl/bin/../x86_64-nacl/lib32/libppapi_stub.a(ppapi_plugin_main_399d0cf7.o)
 .debug_frame   0x0000000000000398       0x54 /Users/yeonwoo-kim/HealthHub/nacl_sdk/pepper_49/toolchain/mac_pnacl/bin/../x86_64-nacl/lib32/libppapi_stub.a(ppapi_plugin_start_8da67623.o)
 .debug_frame   0x00000000000003ec       0x68 /Users/yeonwoo-kim/HealthHub/nacl_sdk/pepper_49/toolchain/mac_pnacl/bin/../x86_64-nacl/lib32/libppapi_stub.a(thread_creator_ccf263e1.o)
 .debug_frame   0x0000000000000454       0x2c /Users/yeonwoo-kim/HealthHub/nacl_sdk/pepper_49/toolchain/mac_pnacl/bin/../x86_64-nacl/lib32/libcrt_common.a(lib_a-atexit.o)
 .debug_frame   0x0000000000000480       0x2c /Users/yeonwoo-kim/HealthHub/nacl_sdk/pepper_49/toolchain/mac_pnacl/bin/../x86_64-nacl/lib32/libcrt_common.a(lib_a-errno.o)
 .debug_frame   0x00000000000004ac       0x30 /Users/yeonwoo-kim/HealthHub/nacl_sdk/pepper_49/toolchain/mac_pnacl/bin/../x86_64-nacl/lib32/libcrt_common.a(lib_a-exit.o)
 .debug_frame   0x00000000000004dc       0x74 /Users/yeonwoo-kim/HealthHub/nacl_sdk/pepper_49/toolchain/mac_pnacl/bin/../x86_64-nacl/lib32/libcrt_common.a(lib_a-fflush.o)
 .debug_frame   0x0000000000000550      0x164 /Users/yeonwoo-kim/HealthHub/nacl_sdk/pepper_49/toolchain/mac_pnacl/bin/../x86_64-nacl/lib32/libcrt_common.a(lib_a-findfp.o)
 .debug_frame   0x00000000000006b4       0x30 /Users/yeonwoo-kim/HealthHub/nacl_sdk/pepper_49/toolchain/mac_pnacl/bin/../x86_64-nacl/lib32/libcrt_common.a(lib_a-fini.o)
 .debug_frame   0x00000000000006e4       0x50 /Users/yeonwoo-kim/HealthHub/nacl_sdk/pepper_49/toolchain/mac_pnacl/bin/../x86_64-nacl/lib32/libcrt_common.a(lib_a-fprintf.o)
 .debug_frame   0x0000000000000734       0x54 /Users/yeonwoo-kim/HealthHub/nacl_sdk/pepper_49/toolchain/mac_pnacl/bin/../x86_64-nacl/lib32/libcrt_common.a(lib_a-fwalk.o)
 .debug_frame   0x0000000000000788       0x54 /Users/yeonwoo-kim/HealthHub/nacl_sdk/pepper_49/toolchain/mac_pnacl/bin/../x86_64-nacl/lib32/libcrt_common.a(lib_a-fwrite.o)
 .debug_frame   0x00000000000007dc       0x48 /Users/yeonwoo-kim/HealthHub/nacl_sdk/pepper_49/toolchain/mac_pnacl/bin/../x86_64-nacl/lib32/libcrt_common.a(lib_a-getenv.o)
 .debug_frame   0x0000000000000824       0x4c /Users/yeonwoo-kim/HealthHub/nacl_sdk/pepper_49/toolchain/mac_pnacl/bin/../x86_64-nacl/lib32/libcrt_common.a(lib_a-getenv_r.o)
 .debug_frame   0x0000000000000870       0x44 /Users/yeonwoo-kim/HealthHub/nacl_sdk/pepper_49/toolchain/mac_pnacl/bin/../x86_64-nacl/lib32/libcrt_common.a(lib_a-impure.o)
 .debug_frame   0x00000000000008b4       0x34 /Users/yeonwoo-kim/HealthHub/nacl_sdk/pepper_49/toolchain/mac_pnacl/bin/../x86_64-nacl/lib32/libcrt_common.a(lib_a-init.o)
 .debug_frame   0x00000000000008e8       0x2c /Users/yeonwoo-kim/HealthHub/nacl_sdk/pepper_49/toolchain/mac_pnacl/bin/../x86_64-nacl/lib32/libcrt_common.a(lib_a-sleep.o)
 .debug_frame   0x0000000000000914       0xa0 /Users/yeonwoo-kim/HealthHub/nacl_sdk/pepper_49/toolchain/mac_pnacl/bin/../x86_64-nacl/lib32/libcrt_common.a(lib_a-stdio.o)
 .debug_frame   0x00000000000009b4       0x30 /Users/yeonwoo-kim/HealthHub/nacl_sdk/pepper_49/toolchain/mac_pnacl/bin/../x86_64-nacl/lib32/libcrt_common.a(lib_a-strcat.o)
 .debug_frame   0x00000000000009e4       0x34 /Users/yeonwoo-kim/HealthHub/nacl_sdk/pepper_49/toolchain/mac_pnacl/bin/../x86_64-nacl/lib32/libcrt_common.a(lib_a-strcmp.o)
 .debug_frame   0x0000000000000a18       0x34 /Users/yeonwoo-kim/HealthHub/nacl_sdk/pepper_49/toolchain/mac_pnacl/bin/../x86_64-nacl/lib32/libcrt_common.a(lib_a-strcpy.o)
 .debug_frame   0x0000000000000a4c       0x34 /Users/yeonwoo-kim/HealthHub/nacl_sdk/pepper_49/toolchain/mac_pnacl/bin/../x86_64-nacl/lib32/libcrt_common.a(lib_a-strncmp.o)
 .debug_frame   0x0000000000000a80       0x74 /Users/yeonwoo-kim/HealthHub/nacl_sdk/pepper_49/toolchain/mac_pnacl/bin/../x86_64-nacl/lib32/libcrt_common.a(lib_a-vfprintf.o)
 .debug_frame   0x0000000000000af4       0x54 /Users/yeonwoo-kim/HealthHub/nacl_sdk/pepper_49/toolchain/mac_pnacl/bin/../x86_64-nacl/lib32/libcrt_common.a(lib_a-vsnprintf.o)
 .debug_frame   0x0000000000000b48       0x50 /Users/yeonwoo-kim/HealthHub/nacl_sdk/pepper_49/toolchain/mac_pnacl/bin/../x86_64-nacl/lib32/libcrt_common.a(lib_a-vsprintf.o)
 .debug_frame   0x0000000000000b98       0x54 /Users/yeonwoo-kim/HealthHub/nacl_sdk/pepper_49/toolchain/mac_pnacl/bin/../x86_64-nacl/lib32/libcrt_common.a(lib_a-wcrtomb.o)
 .debug_frame   0x0000000000000bec       0x54 /Users/yeonwoo-kim/HealthHub/nacl_sdk/pepper_49/toolchain/mac_pnacl/bin/../x86_64-nacl/lib32/libcrt_common.a(lib_a-wcsrtombs.o)
 .debug_frame   0x0000000000000c40       0xc4 /Users/yeonwoo-kim/HealthHub/nacl_sdk/pepper_49/toolchain/mac_pnacl/bin/../x86_64-nacl/lib32/libcrt_common.a(lib_a-wctomb_r.o)
 .debug_frame   0x0000000000000d04       0x34 /Users/yeonwoo-kim/HealthHub/nacl_sdk/pepper_49/toolchain/mac_pnacl/bin/../x86_64-nacl/lib32/libcrt_common.a(lib_a-wsetup.o)
 .debug_frame   0x0000000000000d38       0x34 /Users/yeonwoo-kim/HealthHub/nacl_sdk/pepper_49/toolchain/mac_pnacl/bin/../x86_64-nacl/lib32/libcrt_common.a(lib_a-__atexit.o)
 .debug_frame   0x0000000000000d6c       0x34 /Users/yeonwoo-kim/HealthHub/nacl_sdk/pepper_49/toolchain/mac_pnacl/bin/../x86_64-nacl/lib32/libcrt_common.a(lib_a-__call_atexit.o)
 .debug_frame   0x0000000000000da0       0x54 /Users/yeonwoo-kim/HealthHub/nacl_sdk/pepper_49/toolchain/mac_pnacl/bin/../x86_64-nacl/lib32/libcrt_common.a(lib_a-dtoa.o)
 .debug_frame   0x0000000000000df4       0x44 /Users/yeonwoo-kim/HealthHub/nacl_sdk/pepper_49/toolchain/mac_pnacl/bin/../x86_64-nacl/lib32/libcrt_common.a(lib_a-envlock.o)
 .debug_frame   0x0000000000000e38       0x4c /Users/yeonwoo-kim/HealthHub/nacl_sdk/pepper_49/toolchain/mac_pnacl/bin/../x86_64-nacl/lib32/libcrt_common.a(lib_a-fclose.o)
 .debug_frame   0x0000000000000e84       0x34 /Users/yeonwoo-kim/HealthHub/nacl_sdk/pepper_49/toolchain/mac_pnacl/bin/../x86_64-nacl/lib32/libcrt_common.a(lib_a-fvwrite.o)
 .debug_frame   0x0000000000000eb8      0x118 /Users/yeonwoo-kim/HealthHub/nacl_sdk/pepper_49/toolchain/mac_pnacl/bin/../x86_64-nacl/lib32/libcrt_common.a(lib_a-locale.o)
 .debug_frame   0x0000000000000fd0       0x34 /Users/yeonwoo-kim/HealthHub/nacl_sdk/pepper_49/toolchain/mac_pnacl/bin/../x86_64-nacl/lib32/libcrt_common.a(lib_a-makebuf.o)
 .debug_frame   0x0000000000001004       0xd0 /Users/yeonwoo-kim/HealthHub/nacl_sdk/pepper_49/toolchain/mac_pnacl/bin/../x86_64-nacl/lib32/libcrt_common.a(lib_a-mbtowc_r.o)
 .debug_frame   0x00000000000010d4      0x260 /Users/yeonwoo-kim/HealthHub/nacl_sdk/pepper_49/toolchain/mac_pnacl/bin/../x86_64-nacl/lib32/libcrt_common.a(lib_a-mprec.o)
 .debug_frame   0x0000000000001334       0x34 /Users/yeonwoo-kim/HealthHub/nacl_sdk/pepper_49/toolchain/mac_pnacl/bin/../x86_64-nacl/lib32/libcrt_common.a(lib_a-s_fpclassify.o)
 .debug_frame   0x0000000000001368       0x30 /Users/yeonwoo-kim/HealthHub/nacl_sdk/pepper_49/toolchain/mac_pnacl/bin/../x86_64-nacl/lib32/libcrt_common.a(lib_a-s_frexp.o)
 .debug_frame   0x0000000000001398       0x34 /Users/yeonwoo-kim/HealthHub/nacl_sdk/pepper_49/toolchain/mac_pnacl/bin/../x86_64-nacl/lib32/libcrt_common.a(lib_a-strcasecmp.o)
 .debug_frame   0x00000000000013cc       0x34 /Users/yeonwoo-kim/HealthHub/nacl_sdk/pepper_49/toolchain/mac_pnacl/bin/../x86_64-nacl/lib32/libcrt_common.a(lib_a-strlcpy.o)
 .debug_frame   0x0000000000001400       0x34 /Users/yeonwoo-kim/HealthHub/nacl_sdk/pepper_49/toolchain/mac_pnacl/bin/../x86_64-nacl/lib32/libcrt_common.a(lib_a-strncasecmp.o)
 .debug_frame   0x0000000000001434       0x34 /Users/yeonwoo-kim/HealthHub/nacl_sdk/pepper_49/toolchain/mac_pnacl/bin/../x86_64-nacl/lib32/libcrt_common.a(lib_a-strncpy.o)
 .debug_frame   0x0000000000001468       0x54 /Users/yeonwoo-kim/HealthHub/nacl_sdk/pepper_49/toolchain/mac_pnacl/bin/../x86_64-nacl/lib32/libcrt_common.a(lib_a-strtol.o)
 .debug_frame   0x00000000000014bc       0x34 /Users/yeonwoo-kim/HealthHub/nacl_sdk/pepper_49/toolchain/mac_pnacl/bin/../x86_64-nacl/lib32/libcrt_common.a(lib_a-svfprintf.o)
 .debug_frame   0x00000000000014f0       0x94 /Users/yeonwoo-kim/HealthHub/nacl_sdk/pepper_49/toolchain/mac_pnacl/bin/../x86_64-nacl/lib32/libcrt_common.a(lib_a-vfiprintf.o)
 .debug_frame   0x0000000000001584       0x54 /Users/yeonwoo-kim/HealthHub/nacl_sdk/pepper_49/toolchain/mac_pnacl/bin/../x86_64-nacl/lib32/libcrt_common.a(lib_a-wcsnrtombs.o)
 .debug_frame   0x00000000000015d8       0x2c /Users/yeonwoo-kim/HealthHub/nacl_sdk/pepper_49/toolchain/mac_pnacl/bin/../x86_64-nacl/lib32/libcrt_common.a(lib_a-ctype_.o)
 .debug_frame   0x0000000000001604       0x54 /Users/yeonwoo-kim/HealthHub/nacl_sdk/pepper_49/toolchain/mac_pnacl/bin/../x86_64-nacl/lib32/libcrt_common.a(lib_a-fputwc.o)
 .debug_frame   0x0000000000001658       0x54 /Users/yeonwoo-kim/HealthHub/nacl_sdk/pepper_49/toolchain/mac_pnacl/bin/../x86_64-nacl/lib32/libcrt_common.a(lib_a-svfiprintf.o)
 .debug_frame   0x00000000000016ac       0x50 /Users/yeonwoo-kim/HealthHub/nacl_sdk/pepper_49/toolchain/mac_pnacl/bin/../x86_64-nacl/lib32/libcrt_common.a(lib_a-wbuf.o)

.debug_str      0x0000000000000000     0x5be4
 *(.debug_str)
 .debug_str     0x0000000000000000      0xa0d clang-newlib/Release/debugging_x86_32.o
                                        0xb1d (size before relaxing)
 .debug_str     0x0000000000000a0d      0x3aa /Users/yeonwoo-kim/HealthHub/nacl_sdk/pepper_49/lib/clang-newlib_x86_32/Release/liberror_handling.a(error_handling_x86_32.o)
                                        0x52e (size before relaxing)
 .debug_str     0x0000000000000db7       0x58 /Users/yeonwoo-kim/HealthHub/nacl_sdk/pepper_49/lib/clang-newlib_x86_32/Release/liberror_handling.a(string_stream_x86_32.o)
                                        0x1d4 (size before relaxing)
 .debug_str     0x0000000000000e0f       0x63 /Users/yeonwoo-kim/HealthHub/nacl_sdk/pepper_49/toolchain/mac_pnacl/bin/../x86_64-nacl/lib32/libppapi_stub.a(plugin_main_irt_21ce9d26.o)
                                        0x154 (size before relaxing)
 .debug_str     0x0000000000000e72       0x50 /Users/yeonwoo-kim/HealthHub/nacl_sdk/pepper_49/toolchain/mac_pnacl/bin/../x86_64-nacl/lib32/libppapi_stub.a(ppapi_plugin_main_399d0cf7.o)
                                        0x1f8 (size before relaxing)
 .debug_str     0x0000000000000ec2       0xf1 /Users/yeonwoo-kim/HealthHub/nacl_sdk/pepper_49/toolchain/mac_pnacl/bin/../x86_64-nacl/lib32/libppapi_stub.a(ppapi_plugin_start_8da67623.o)
                                        0x327 (size before relaxing)
 .debug_str     0x0000000000000fb3       0x51 /Users/yeonwoo-kim/HealthHub/nacl_sdk/pepper_49/toolchain/mac_pnacl/bin/../x86_64-nacl/lib32/libppapi_stub.a(thread_creator_ccf263e1.o)
                                        0x2c4 (size before relaxing)
 .debug_str     0x0000000000001004      0x9c0 /Users/yeonwoo-kim/HealthHub/nacl_sdk/pepper_49/toolchain/mac_pnacl/bin/../x86_64-nacl/lib32/libpthread.a(nc_thread.o)
                                        0xc0c (size before relaxing)
 .debug_str     0x00000000000019c4      0x22b /Users/yeonwoo-kim/HealthHub/nacl_sdk/pepper_49/toolchain/mac_pnacl/bin/../x86_64-nacl/lib32/libpthread.a(nc_mutex.o)
                                        0x698 (size before relaxing)
 .debug_str     0x0000000000001bef      0x18c /Users/yeonwoo-kim/HealthHub/nacl_sdk/pepper_49/toolchain/mac_pnacl/bin/../x86_64-nacl/lib32/libpthread.a(nc_condvar.o)
                                        0x560 (size before relaxing)
 .debug_str     0x0000000000001d7b      0x4aa /Users/yeonwoo-kim/HealthHub/nacl_sdk/pepper_49/toolchain/mac_pnacl/bin/../x86_64-nacl/lib32/libpthread.a(valgrind_annotations.o)
                                        0x634 (size before relaxing)
 .debug_str     0x0000000000002225       0x6d /Users/yeonwoo-kim/HealthHub/nacl_sdk/pepper_49/toolchain/mac_pnacl/bin/../x86_64-nacl/lib32/libpthread.a(nc_init_irt.o)
                                        0x1f1 (size before relaxing)
 .debug_str     0x0000000000002292      0x324 /Users/yeonwoo-kim/HealthHub/nacl_sdk/pepper_49/toolchain/mac_pnacl/bin/../x86_64-nacl/lib32/libnacl.a(nacl_irt.o)
                                        0x639 (size before relaxing)
 .debug_str     0x00000000000025b6       0x1b /Users/yeonwoo-kim/HealthHub/nacl_sdk/pepper_49/toolchain/mac_pnacl/bin/../x86_64-nacl/lib32/libnacl.a(_exit.o)
                                        0x154 (size before relaxing)
 .debug_str     0x00000000000025d1       0x24 /Users/yeonwoo-kim/HealthHub/nacl_sdk/pepper_49/toolchain/mac_pnacl/bin/../x86_64-nacl/lib32/libnacl.a(mmap.o)
                                        0x1ae (size before relaxing)
 .debug_str     0x00000000000025f5       0x1c /Users/yeonwoo-kim/HealthHub/nacl_sdk/pepper_49/toolchain/mac_pnacl/bin/../x86_64-nacl/lib32/libnacl.a(munmap.o)
                                        0x176 (size before relaxing)
 .debug_str     0x0000000000002611       0x59 /Users/yeonwoo-kim/HealthHub/nacl_sdk/pepper_49/toolchain/mac_pnacl/bin/../x86_64-nacl/lib32/libnacl.a(nacl_interface_query.o)
                                        0x1a0 (size before relaxing)
 .debug_str     0x000000000000266a       0x1b /Users/yeonwoo-kim/HealthHub/nacl_sdk/pepper_49/toolchain/mac_pnacl/bin/../x86_64-nacl/lib32/libnacl.a(write.o)
                                        0x17d (size before relaxing)
 .debug_str     0x0000000000002685       0x29 /Users/yeonwoo-kim/HealthHub/nacl_sdk/pepper_49/toolchain/mac_pnacl/bin/../x86_64-nacl/lib32/libnacl.a(environ.o)
                                        0x167 (size before relaxing)
 .debug_str     0x00000000000026ae      0xabc /Users/yeonwoo-kim/HealthHub/nacl_sdk/pepper_49/toolchain/mac_pnacl/bin/../x86_64-nacl/lib32/libnacl.a(malloc.o)
                                        0xe84 (size before relaxing)
 .debug_str     0x000000000000316a      0x12d /Users/yeonwoo-kim/HealthHub/nacl_sdk/pepper_49/toolchain/mac_pnacl/bin/../x86_64-nacl/lib32/libnacl.a(start.o)
                                        0x2ce (size before relaxing)
 .debug_str     0x0000000000003297       0x31 /Users/yeonwoo-kim/HealthHub/nacl_sdk/pepper_49/toolchain/mac_pnacl/bin/../x86_64-nacl/lib32/libnacl.a(nacl_read_tp.o)
                                        0x159 (size before relaxing)
 .debug_str     0x00000000000032c8       0x4d /Users/yeonwoo-kim/HealthHub/nacl_sdk/pepper_49/toolchain/mac_pnacl/bin/../x86_64-nacl/lib32/libnacl.a(pthread_initialize_minimal.o)
                                        0x1b1 (size before relaxing)
 .debug_str     0x0000000000003315      0x196 /Users/yeonwoo-kim/HealthHub/nacl_sdk/pepper_49/toolchain/mac_pnacl/bin/../x86_64-nacl/lib32/libnacl.a(tls.o)
                                        0x385 (size before relaxing)
 .debug_str     0x00000000000034ab       0x78 /Users/yeonwoo-kim/HealthHub/nacl_sdk/pepper_49/toolchain/mac_pnacl/bin/../x86_64-nacl/lib32/libnacl.a(nacl_irt_init.o)
                                        0x273 (size before relaxing)
 .debug_str     0x0000000000003523       0x2f /Users/yeonwoo-kim/HealthHub/nacl_sdk/pepper_49/toolchain/mac_pnacl/bin/../x86_64-nacl/lib32/libnacl.a(nacl_tls_get.o)
                                        0x157 (size before relaxing)
 .debug_str     0x0000000000003552       0x3c /Users/yeonwoo-kim/HealthHub/nacl_sdk/pepper_49/toolchain/mac_pnacl/bin/../x86_64-nacl/lib32/libnacl.a(nacl_tls_init.o)
                                        0x168 (size before relaxing)
 .debug_str     0x000000000000358e       0x21 /Users/yeonwoo-kim/HealthHub/nacl_sdk/pepper_49/toolchain/mac_pnacl/bin/../x86_64-nacl/lib32/libnacl.a(abort.o)
                                        0x15f (size before relaxing)
 .debug_str     0x00000000000035af       0x21 /Users/yeonwoo-kim/HealthHub/nacl_sdk/pepper_49/toolchain/mac_pnacl/bin/../x86_64-nacl/lib32/libnacl.a(sched_yield.o)
                                        0x15f (size before relaxing)
 .debug_str     0x00000000000035d0       0x1d /Users/yeonwoo-kim/HealthHub/nacl_sdk/pepper_49/toolchain/mac_pnacl/bin/../x86_64-nacl/lib32/libnacl.a(sysconf.o)
                                        0x16b (size before relaxing)
 .debug_str     0x00000000000035ed       0xec /Users/yeonwoo-kim/HealthHub/nacl_sdk/pepper_49/toolchain/mac_pnacl/bin/../x86_64-nacl/lib32/libcrt_common.a(lib_a-atexit.o)
                                        0x1e7 (size before relaxing)
 .debug_str     0x00000000000036d9       0xc1 /Users/yeonwoo-kim/HealthHub/nacl_sdk/pepper_49/toolchain/mac_pnacl/bin/../x86_64-nacl/lib32/libcrt_common.a(lib_a-errno.o)
                                        0x1b2 (size before relaxing)
 .debug_str     0x000000000000379a       0x42 /Users/yeonwoo-kim/HealthHub/nacl_sdk/pepper_49/toolchain/mac_pnacl/bin/../x86_64-nacl/lib32/libcrt_common.a(lib_a-exit.o)
                                        0x1b5 (size before relaxing)
 .debug_str     0x00000000000037dc       0xfb /Users/yeonwoo-kim/HealthHub/nacl_sdk/pepper_49/toolchain/mac_pnacl/bin/../x86_64-nacl/lib32/libcrt_common.a(lib_a-fflush.o)
                                        0x6cf (size before relaxing)
 .debug_str     0x00000000000038d7      0x113 /Users/yeonwoo-kim/HealthHub/nacl_sdk/pepper_49/toolchain/mac_pnacl/bin/../x86_64-nacl/lib32/libcrt_common.a(lib_a-findfp.o)
                                        0x786 (size before relaxing)
 .debug_str     0x00000000000039ea       0xc8 /Users/yeonwoo-kim/HealthHub/nacl_sdk/pepper_49/toolchain/mac_pnacl/bin/../x86_64-nacl/lib32/libcrt_common.a(lib_a-fini.o)
                                        0x1d1 (size before relaxing)
 .debug_str     0x0000000000003ab2       0x4e /Users/yeonwoo-kim/HealthHub/nacl_sdk/pepper_49/toolchain/mac_pnacl/bin/../x86_64-nacl/lib32/libcrt_common.a(lib_a-fprintf.o)
                                        0x6b4 (size before relaxing)
 .debug_str     0x0000000000003b00       0x62 /Users/yeonwoo-kim/HealthHub/nacl_sdk/pepper_49/toolchain/mac_pnacl/bin/../x86_64-nacl/lib32/libcrt_common.a(lib_a-fwalk.o)
                                        0x6d4 (size before relaxing)
 .debug_str     0x0000000000003b62       0x8b /Users/yeonwoo-kim/HealthHub/nacl_sdk/pepper_49/toolchain/mac_pnacl/bin/../x86_64-nacl/lib32/libcrt_common.a(lib_a-fwrite.o)
                                        0x6f8 (size before relaxing)
 .debug_str     0x0000000000003bed       0x4f /Users/yeonwoo-kim/HealthHub/nacl_sdk/pepper_49/toolchain/mac_pnacl/bin/../x86_64-nacl/lib32/libcrt_common.a(lib_a-getenv.o)
                                        0x1ce (size before relaxing)
 .debug_str     0x0000000000003c3c       0x6a /Users/yeonwoo-kim/HealthHub/nacl_sdk/pepper_49/toolchain/mac_pnacl/bin/../x86_64-nacl/lib32/libcrt_common.a(lib_a-getenv_r.o)
                                        0x6b0 (size before relaxing)
 .debug_str     0x0000000000003ca6      0x10a /Users/yeonwoo-kim/HealthHub/nacl_sdk/pepper_49/toolchain/mac_pnacl/bin/../x86_64-nacl/lib32/libcrt_common.a(lib_a-impure.o)
                                        0x6d7 (size before relaxing)
 .debug_str     0x0000000000003db0       0x4d /Users/yeonwoo-kim/HealthHub/nacl_sdk/pepper_49/toolchain/mac_pnacl/bin/../x86_64-nacl/lib32/libcrt_common.a(lib_a-init.o)
                                        0x1d1 (size before relaxing)
 .debug_str     0x0000000000003dfd       0xc1 /Users/yeonwoo-kim/HealthHub/nacl_sdk/pepper_49/toolchain/mac_pnacl/bin/../x86_64-nacl/lib32/libcrt_common.a(lib_a-sleep.o)
                                        0x20d (size before relaxing)
 .debug_str     0x0000000000003ebe       0x6a /Users/yeonwoo-kim/HealthHub/nacl_sdk/pepper_49/toolchain/mac_pnacl/bin/../x86_64-nacl/lib32/libcrt_common.a(lib_a-stdio.o)
                                        0x6e2 (size before relaxing)
 .debug_str     0x0000000000003f28       0xce /Users/yeonwoo-kim/HealthHub/nacl_sdk/pepper_49/toolchain/mac_pnacl/bin/../x86_64-nacl/lib32/libcrt_common.a(lib_a-strcat.o)
                                        0x1e3 (size before relaxing)
 .debug_str     0x0000000000003ff6       0x4c /Users/yeonwoo-kim/HealthHub/nacl_sdk/pepper_49/toolchain/mac_pnacl/bin/../x86_64-nacl/lib32/libcrt_common.a(lib_a-strcmp.o)
                                        0x1ee (size before relaxing)
 .debug_str     0x0000000000004042       0x68 /Users/yeonwoo-kim/HealthHub/nacl_sdk/pepper_49/toolchain/mac_pnacl/bin/../x86_64-nacl/lib32/libcrt_common.a(lib_a-strcpy.o)
                                        0x1e8 (size before relaxing)
 .debug_str     0x00000000000040aa       0x48 /Users/yeonwoo-kim/HealthHub/nacl_sdk/pepper_49/toolchain/mac_pnacl/bin/../x86_64-nacl/lib32/libcrt_common.a(lib_a-strncmp.o)
                                        0x206 (size before relaxing)
 .debug_str     0x00000000000040f2      0x181 /Users/yeonwoo-kim/HealthHub/nacl_sdk/pepper_49/toolchain/mac_pnacl/bin/../x86_64-nacl/lib32/libcrt_common.a(lib_a-vfprintf.o)
                                        0x909 (size before relaxing)
 .debug_str     0x0000000000004273       0x58 /Users/yeonwoo-kim/HealthHub/nacl_sdk/pepper_49/toolchain/mac_pnacl/bin/../x86_64-nacl/lib32/libcrt_common.a(lib_a-vsnprintf.o)
                                        0x6c9 (size before relaxing)
 .debug_str     0x00000000000042cb       0x55 /Users/yeonwoo-kim/HealthHub/nacl_sdk/pepper_49/toolchain/mac_pnacl/bin/../x86_64-nacl/lib32/libcrt_common.a(lib_a-vsprintf.o)
                                        0x6ba (size before relaxing)
 .debug_str     0x0000000000004320       0x53 /Users/yeonwoo-kim/HealthHub/nacl_sdk/pepper_49/toolchain/mac_pnacl/bin/../x86_64-nacl/lib32/libcrt_common.a(lib_a-wcrtomb.o)
                                        0x6bb (size before relaxing)
 .debug_str     0x0000000000004373       0x59 /Users/yeonwoo-kim/HealthHub/nacl_sdk/pepper_49/toolchain/mac_pnacl/bin/../x86_64-nacl/lib32/libcrt_common.a(lib_a-wcsrtombs.o)
                                        0x6b5 (size before relaxing)
 .debug_str     0x00000000000043cc       0xae /Users/yeonwoo-kim/HealthHub/nacl_sdk/pepper_49/toolchain/mac_pnacl/bin/../x86_64-nacl/lib32/libcrt_common.a(lib_a-wctomb_r.o)
                                        0x719 (size before relaxing)
 .debug_str     0x000000000000447a       0x4a /Users/yeonwoo-kim/HealthHub/nacl_sdk/pepper_49/toolchain/mac_pnacl/bin/../x86_64-nacl/lib32/libcrt_common.a(lib_a-wsetup.o)
                                        0x697 (size before relaxing)
 .debug_str     0x00000000000044c4       0x55 /Users/yeonwoo-kim/HealthHub/nacl_sdk/pepper_49/toolchain/mac_pnacl/bin/../x86_64-nacl/lib32/libcrt_common.a(lib_a-__atexit.o)
                                        0x276 (size before relaxing)
 .debug_str     0x0000000000004519       0x6b /Users/yeonwoo-kim/HealthHub/nacl_sdk/pepper_49/toolchain/mac_pnacl/bin/../x86_64-nacl/lib32/libcrt_common.a(lib_a-__call_atexit.o)
                                        0x2d5 (size before relaxing)
 .debug_str     0x0000000000004584       0xd6 /Users/yeonwoo-kim/HealthHub/nacl_sdk/pepper_49/toolchain/mac_pnacl/bin/../x86_64-nacl/lib32/libcrt_common.a(lib_a-dtoa.o)
                                        0x784 (size before relaxing)
 .debug_str     0x000000000000465a       0x6a /Users/yeonwoo-kim/HealthHub/nacl_sdk/pepper_49/toolchain/mac_pnacl/bin/../x86_64-nacl/lib32/libcrt_common.a(lib_a-envlock.o)
                                        0x6a0 (size before relaxing)
 .debug_str     0x00000000000046c4       0x4f /Users/yeonwoo-kim/HealthHub/nacl_sdk/pepper_49/toolchain/mac_pnacl/bin/../x86_64-nacl/lib32/libcrt_common.a(lib_a-fclose.o)
                                        0x69f (size before relaxing)
 .debug_str     0x0000000000004713       0x65 /Users/yeonwoo-kim/HealthHub/nacl_sdk/pepper_49/toolchain/mac_pnacl/bin/../x86_64-nacl/lib32/libcrt_common.a(lib_a-fvwrite.o)
                                        0x703 (size before relaxing)
 .debug_str     0x0000000000004778      0x34a /Users/yeonwoo-kim/HealthHub/nacl_sdk/pepper_49/toolchain/mac_pnacl/bin/../x86_64-nacl/lib32/libcrt_common.a(lib_a-locale.o)
                                        0x9dd (size before relaxing)
 .debug_str     0x0000000000004ac2      0x137 /Users/yeonwoo-kim/HealthHub/nacl_sdk/pepper_49/toolchain/mac_pnacl/bin/../x86_64-nacl/lib32/libcrt_common.a(lib_a-makebuf.o)
                                        0x7f7 (size before relaxing)
 .debug_str     0x0000000000004bf9      0x19e /Users/yeonwoo-kim/HealthHub/nacl_sdk/pepper_49/toolchain/mac_pnacl/bin/../x86_64-nacl/lib32/libcrt_common.a(lib_a-mbtowc_r.o)
                                        0x816 (size before relaxing)
 .debug_str     0x0000000000004d97      0x166 /Users/yeonwoo-kim/HealthHub/nacl_sdk/pepper_49/toolchain/mac_pnacl/bin/../x86_64-nacl/lib32/libcrt_common.a(lib_a-mprec.o)
                                        0x812 (size before relaxing)
 .debug_str     0x0000000000004efd       0xfa /Users/yeonwoo-kim/HealthHub/nacl_sdk/pepper_49/toolchain/mac_pnacl/bin/../x86_64-nacl/lib32/libcrt_common.a(lib_a-s_fpclassify.o)
                                        0x212 (size before relaxing)
 .debug_str     0x0000000000004ff7       0xda /Users/yeonwoo-kim/HealthHub/nacl_sdk/pepper_49/toolchain/mac_pnacl/bin/../x86_64-nacl/lib32/libcrt_common.a(lib_a-s_frexp.o)
                                        0x229 (size before relaxing)
 .debug_str     0x00000000000050d1       0x62 /Users/yeonwoo-kim/HealthHub/nacl_sdk/pepper_49/toolchain/mac_pnacl/bin/../x86_64-nacl/lib32/libcrt_common.a(lib_a-strcasecmp.o)
                                        0x1eb (size before relaxing)
 .debug_str     0x0000000000005133       0x4c /Users/yeonwoo-kim/HealthHub/nacl_sdk/pepper_49/toolchain/mac_pnacl/bin/../x86_64-nacl/lib32/libcrt_common.a(lib_a-strlcpy.o)
                                        0x1dd (size before relaxing)
 .debug_str     0x000000000000517f       0x50 /Users/yeonwoo-kim/HealthHub/nacl_sdk/pepper_49/toolchain/mac_pnacl/bin/../x86_64-nacl/lib32/libcrt_common.a(lib_a-strncasecmp.o)
                                        0x203 (size before relaxing)
 .debug_str     0x00000000000051cf       0x48 /Users/yeonwoo-kim/HealthHub/nacl_sdk/pepper_49/toolchain/mac_pnacl/bin/../x86_64-nacl/lib32/libcrt_common.a(lib_a-strncpy.o)
                                        0x204 (size before relaxing)
 .debug_str     0x0000000000005217       0x6d /Users/yeonwoo-kim/HealthHub/nacl_sdk/pepper_49/toolchain/mac_pnacl/bin/../x86_64-nacl/lib32/libcrt_common.a(lib_a-strtol.o)
                                        0x6ba (size before relaxing)
 .debug_str     0x0000000000005284        0xd /Users/yeonwoo-kim/HealthHub/nacl_sdk/pepper_49/toolchain/mac_pnacl/bin/../x86_64-nacl/lib32/libcrt_common.a(lib_a-svfprintf.o)
                                        0x8d5 (size before relaxing)
 .debug_str     0x0000000000005291       0x22 /Users/yeonwoo-kim/HealthHub/nacl_sdk/pepper_49/toolchain/mac_pnacl/bin/../x86_64-nacl/lib32/libcrt_common.a(lib_a-vfiprintf.o)
                                        0x84a (size before relaxing)
 .debug_str     0x00000000000052b3       0x6a /Users/yeonwoo-kim/HealthHub/nacl_sdk/pepper_49/toolchain/mac_pnacl/bin/../x86_64-nacl/lib32/libcrt_common.a(lib_a-wcsnrtombs.o)
                                        0x6de (size before relaxing)
 .debug_str     0x000000000000531d       0xe5 /Users/yeonwoo-kim/HealthHub/nacl_sdk/pepper_49/toolchain/mac_pnacl/bin/../x86_64-nacl/lib32/libcrt_common.a(lib_a-ctype_.o)
                                        0x1e8 (size before relaxing)
 .debug_str     0x0000000000005402       0x51 /Users/yeonwoo-kim/HealthHub/nacl_sdk/pepper_49/toolchain/mac_pnacl/bin/../x86_64-nacl/lib32/libcrt_common.a(lib_a-fputwc.o)
                                        0x6c9 (size before relaxing)
 .debug_str     0x0000000000005453       0x1a /Users/yeonwoo-kim/HealthHub/nacl_sdk/pepper_49/toolchain/mac_pnacl/bin/../x86_64-nacl/lib32/libcrt_common.a(lib_a-svfiprintf.o)
                                        0x825 (size before relaxing)
 .debug_str     0x000000000000546d       0x4e /Users/yeonwoo-kim/HealthHub/nacl_sdk/pepper_49/toolchain/mac_pnacl/bin/../x86_64-nacl/lib32/libcrt_common.a(lib_a-wbuf.o)
                                        0x69f (size before relaxing)
 .debug_str     0x00000000000054bb       0x1b /Users/yeonwoo-kim/HealthHub/nacl_sdk/pepper_49/toolchain/mac_pnacl/bin/../x86_64-nacl/lib32/libnacl.a(close.o)
                                        0x158 (size before relaxing)
 .debug_str     0x00000000000054d6       0x1b /Users/yeonwoo-kim/HealthHub/nacl_sdk/pepper_49/toolchain/mac_pnacl/bin/../x86_64-nacl/lib32/libnacl.a(fstat.o)
                                        0x2ee (size before relaxing)
 .debug_str     0x00000000000054f1       0x1c /Users/yeonwoo-kim/HealthHub/nacl_sdk/pepper_49/toolchain/mac_pnacl/bin/../x86_64-nacl/lib32/libnacl.a(isatty.o)
                                        0x15f (size before relaxing)
 .debug_str     0x000000000000550d       0x21 /Users/yeonwoo-kim/HealthHub/nacl_sdk/pepper_49/toolchain/mac_pnacl/bin/../x86_64-nacl/lib32/libnacl.a(lseek.o)
                                        0x192 (size before relaxing)
 .debug_str     0x000000000000552e       0x1f /Users/yeonwoo-kim/HealthHub/nacl_sdk/pepper_49/toolchain/mac_pnacl/bin/../x86_64-nacl/lib32/libnacl.a(nanosleep.o)
                                        0x1ac (size before relaxing)
 .debug_str     0x000000000000554d       0x3f /Users/yeonwoo-kim/HealthHub/nacl_sdk/pepper_49/toolchain/mac_pnacl/bin/../x86_64-nacl/lib32/libnacl.a(nacl_irt_fdio.o)
                                        0x167 (size before relaxing)
 .debug_str     0x000000000000558c       0x1a /Users/yeonwoo-kim/HealthHub/nacl_sdk/pepper_49/toolchain/mac_pnacl/bin/../x86_64-nacl/lib32/libnacl.a(read.o)
                                        0x17a (size before relaxing)
 .debug_str     0x00000000000055a6      0x63e /Users/yeonwoo-kim/HealthHub/nacl_sdk/pepper_49/toolchain/mac_pnacl/bin/../lib/clang/3.7.0/lib/i686-nacl/libgcc_eh.a(unwind-dw2-fde-glibc.o)
                                        0x71e (size before relaxing)

.debug_loc      0x0000000000000000    0x1585d
 *(.debug_loc)
 .debug_loc     0x0000000000000000      0x2a0 clang-newlib/Release/debugging_x86_32.o
 .debug_loc     0x00000000000002a0      0x22a /Users/yeonwoo-kim/HealthHub/nacl_sdk/pepper_49/lib/clang-newlib_x86_32/Release/liberror_handling.a(error_handling_x86_32.o)
 .debug_loc     0x00000000000004ca       0xe8 /Users/yeonwoo-kim/HealthHub/nacl_sdk/pepper_49/lib/clang-newlib_x86_32/Release/liberror_handling.a(string_stream_x86_32.o)
 .debug_loc     0x00000000000005b2        0x0 /Users/yeonwoo-kim/HealthHub/nacl_sdk/pepper_49/toolchain/mac_pnacl/bin/../x86_64-nacl/lib32/libppapi_stub.a(plugin_main_irt_21ce9d26.o)
 .debug_loc     0x00000000000005b2        0x0 /Users/yeonwoo-kim/HealthHub/nacl_sdk/pepper_49/toolchain/mac_pnacl/bin/../x86_64-nacl/lib32/libppapi_stub.a(ppapi_plugin_main_399d0cf7.o)
 .debug_loc     0x00000000000005b2       0x7e /Users/yeonwoo-kim/HealthHub/nacl_sdk/pepper_49/toolchain/mac_pnacl/bin/../x86_64-nacl/lib32/libppapi_stub.a(ppapi_plugin_start_8da67623.o)
 .debug_loc     0x0000000000000630       0x64 /Users/yeonwoo-kim/HealthHub/nacl_sdk/pepper_49/toolchain/mac_pnacl/bin/../x86_64-nacl/lib32/libppapi_stub.a(thread_creator_ccf263e1.o)
 .debug_loc     0x0000000000000694      0xa44 /Users/yeonwoo-kim/HealthHub/nacl_sdk/pepper_49/toolchain/mac_pnacl/bin/../x86_64-nacl/lib32/libpthread.a(nc_thread.o)
 .debug_loc     0x00000000000010d8      0x48b /Users/yeonwoo-kim/HealthHub/nacl_sdk/pepper_49/toolchain/mac_pnacl/bin/../x86_64-nacl/lib32/libpthread.a(nc_mutex.o)
 .debug_loc     0x0000000000001563      0x239 /Users/yeonwoo-kim/HealthHub/nacl_sdk/pepper_49/toolchain/mac_pnacl/bin/../x86_64-nacl/lib32/libpthread.a(nc_condvar.o)
 .debug_loc     0x000000000000179c      0x922 /Users/yeonwoo-kim/HealthHub/nacl_sdk/pepper_49/toolchain/mac_pnacl/bin/../x86_64-nacl/lib32/libpthread.a(valgrind_annotations.o)
 .debug_loc     0x00000000000020be        0x0 /Users/yeonwoo-kim/HealthHub/nacl_sdk/pepper_49/toolchain/mac_pnacl/bin/../x86_64-nacl/lib32/libpthread.a(nc_init_irt.o)
 .debug_loc     0x00000000000020be      0x2e4 /Users/yeonwoo-kim/HealthHub/nacl_sdk/pepper_49/toolchain/mac_pnacl/bin/../x86_64-nacl/lib32/libnacl.a(nacl_irt.o)
 .debug_loc     0x00000000000023a2        0x0 /Users/yeonwoo-kim/HealthHub/nacl_sdk/pepper_49/toolchain/mac_pnacl/bin/../x86_64-nacl/lib32/libnacl.a(_exit.o)
 .debug_loc     0x00000000000023a2      0x146 /Users/yeonwoo-kim/HealthHub/nacl_sdk/pepper_49/toolchain/mac_pnacl/bin/../x86_64-nacl/lib32/libnacl.a(mmap.o)
 .debug_loc     0x00000000000024e8       0x53 /Users/yeonwoo-kim/HealthHub/nacl_sdk/pepper_49/toolchain/mac_pnacl/bin/../x86_64-nacl/lib32/libnacl.a(munmap.o)
 .debug_loc     0x000000000000253b        0x0 /Users/yeonwoo-kim/HealthHub/nacl_sdk/pepper_49/toolchain/mac_pnacl/bin/../x86_64-nacl/lib32/libnacl.a(nacl_interface_query.o)
 .debug_loc     0x000000000000253b       0xab /Users/yeonwoo-kim/HealthHub/nacl_sdk/pepper_49/toolchain/mac_pnacl/bin/../x86_64-nacl/lib32/libnacl.a(write.o)
 .debug_loc     0x00000000000025e6        0x0 /Users/yeonwoo-kim/HealthHub/nacl_sdk/pepper_49/toolchain/mac_pnacl/bin/../x86_64-nacl/lib32/libnacl.a(environ.o)
 .debug_loc     0x00000000000025e6     0x2fce /Users/yeonwoo-kim/HealthHub/nacl_sdk/pepper_49/toolchain/mac_pnacl/bin/../x86_64-nacl/lib32/libnacl.a(malloc.o)
 .debug_loc     0x00000000000055b4       0xed /Users/yeonwoo-kim/HealthHub/nacl_sdk/pepper_49/toolchain/mac_pnacl/bin/../x86_64-nacl/lib32/libnacl.a(start.o)
 .debug_loc     0x00000000000056a1        0x0 /Users/yeonwoo-kim/HealthHub/nacl_sdk/pepper_49/toolchain/mac_pnacl/bin/../x86_64-nacl/lib32/libnacl.a(nacl_read_tp.o)
 .debug_loc     0x00000000000056a1       0x62 /Users/yeonwoo-kim/HealthHub/nacl_sdk/pepper_49/toolchain/mac_pnacl/bin/../x86_64-nacl/lib32/libnacl.a(pthread_initialize_minimal.o)
 .debug_loc     0x0000000000005703      0x210 /Users/yeonwoo-kim/HealthHub/nacl_sdk/pepper_49/toolchain/mac_pnacl/bin/../x86_64-nacl/lib32/libnacl.a(tls.o)
 .debug_loc     0x0000000000005913       0xa6 /Users/yeonwoo-kim/HealthHub/nacl_sdk/pepper_49/toolchain/mac_pnacl/bin/../x86_64-nacl/lib32/libnacl.a(nacl_irt_init.o)
 .debug_loc     0x00000000000059b9        0x0 /Users/yeonwoo-kim/HealthHub/nacl_sdk/pepper_49/toolchain/mac_pnacl/bin/../x86_64-nacl/lib32/libnacl.a(nacl_tls_get.o)
 .debug_loc     0x00000000000059b9        0x0 /Users/yeonwoo-kim/HealthHub/nacl_sdk/pepper_49/toolchain/mac_pnacl/bin/../x86_64-nacl/lib32/libnacl.a(nacl_tls_init.o)
 .debug_loc     0x00000000000059b9        0x0 /Users/yeonwoo-kim/HealthHub/nacl_sdk/pepper_49/toolchain/mac_pnacl/bin/../x86_64-nacl/lib32/libnacl.a(abort.o)
 .debug_loc     0x00000000000059b9       0x13 /Users/yeonwoo-kim/HealthHub/nacl_sdk/pepper_49/toolchain/mac_pnacl/bin/../x86_64-nacl/lib32/libnacl.a(sched_yield.o)
 .debug_loc     0x00000000000059cc       0x53 /Users/yeonwoo-kim/HealthHub/nacl_sdk/pepper_49/toolchain/mac_pnacl/bin/../x86_64-nacl/lib32/libnacl.a(sysconf.o)
 .debug_loc     0x0000000000005a1f       0x14 /Users/yeonwoo-kim/HealthHub/nacl_sdk/pepper_49/toolchain/mac_pnacl/bin/../x86_64-nacl/lib32/libcrt_common.a(lib_a-atexit.o)
 .debug_loc     0x0000000000005a33        0x0 /Users/yeonwoo-kim/HealthHub/nacl_sdk/pepper_49/toolchain/mac_pnacl/bin/../x86_64-nacl/lib32/libcrt_common.a(lib_a-errno.o)
 .debug_loc     0x0000000000005a33       0x13 /Users/yeonwoo-kim/HealthHub/nacl_sdk/pepper_49/toolchain/mac_pnacl/bin/../x86_64-nacl/lib32/libcrt_common.a(lib_a-exit.o)
 .debug_loc     0x0000000000005a46      0x20f /Users/yeonwoo-kim/HealthHub/nacl_sdk/pepper_49/toolchain/mac_pnacl/bin/../x86_64-nacl/lib32/libcrt_common.a(lib_a-fflush.o)
 .debug_loc     0x0000000000005c55       0xdf /Users/yeonwoo-kim/HealthHub/nacl_sdk/pepper_49/toolchain/mac_pnacl/bin/../x86_64-nacl/lib32/libcrt_common.a(lib_a-findfp.o)
 .debug_loc     0x0000000000005d34       0x13 /Users/yeonwoo-kim/HealthHub/nacl_sdk/pepper_49/toolchain/mac_pnacl/bin/../x86_64-nacl/lib32/libcrt_common.a(lib_a-fini.o)
 .debug_loc     0x0000000000005d47       0x64 /Users/yeonwoo-kim/HealthHub/nacl_sdk/pepper_49/toolchain/mac_pnacl/bin/../x86_64-nacl/lib32/libcrt_common.a(lib_a-fprintf.o)
 .debug_loc     0x0000000000005dab      0x192 /Users/yeonwoo-kim/HealthHub/nacl_sdk/pepper_49/toolchain/mac_pnacl/bin/../x86_64-nacl/lib32/libcrt_common.a(lib_a-fwalk.o)
 .debug_loc     0x0000000000005f3d      0x138 /Users/yeonwoo-kim/HealthHub/nacl_sdk/pepper_49/toolchain/mac_pnacl/bin/../x86_64-nacl/lib32/libcrt_common.a(lib_a-fwrite.o)
 .debug_loc     0x0000000000006075       0x3c /Users/yeonwoo-kim/HealthHub/nacl_sdk/pepper_49/toolchain/mac_pnacl/bin/../x86_64-nacl/lib32/libcrt_common.a(lib_a-getenv.o)
 .debug_loc     0x00000000000060b1       0xb3 /Users/yeonwoo-kim/HealthHub/nacl_sdk/pepper_49/toolchain/mac_pnacl/bin/../x86_64-nacl/lib32/libcrt_common.a(lib_a-getenv_r.o)
 .debug_loc     0x0000000000006164        0x0 /Users/yeonwoo-kim/HealthHub/nacl_sdk/pepper_49/toolchain/mac_pnacl/bin/../x86_64-nacl/lib32/libcrt_common.a(lib_a-impure.o)
 .debug_loc     0x0000000000006164       0x45 /Users/yeonwoo-kim/HealthHub/nacl_sdk/pepper_49/toolchain/mac_pnacl/bin/../x86_64-nacl/lib32/libcrt_common.a(lib_a-init.o)
 .debug_loc     0x00000000000061a9       0x34 /Users/yeonwoo-kim/HealthHub/nacl_sdk/pepper_49/toolchain/mac_pnacl/bin/../x86_64-nacl/lib32/libcrt_common.a(lib_a-sleep.o)
 .debug_loc     0x00000000000061dd      0x1c9 /Users/yeonwoo-kim/HealthHub/nacl_sdk/pepper_49/toolchain/mac_pnacl/bin/../x86_64-nacl/lib32/libcrt_common.a(lib_a-stdio.o)
 .debug_loc     0x00000000000063a6       0x39 /Users/yeonwoo-kim/HealthHub/nacl_sdk/pepper_49/toolchain/mac_pnacl/bin/../x86_64-nacl/lib32/libcrt_common.a(lib_a-strcat.o)
 .debug_loc     0x00000000000063df       0x6d /Users/yeonwoo-kim/HealthHub/nacl_sdk/pepper_49/toolchain/mac_pnacl/bin/../x86_64-nacl/lib32/libcrt_common.a(lib_a-strcmp.o)
 .debug_loc     0x000000000000644c       0x9e /Users/yeonwoo-kim/HealthHub/nacl_sdk/pepper_49/toolchain/mac_pnacl/bin/../x86_64-nacl/lib32/libcrt_common.a(lib_a-strcpy.o)
 .debug_loc     0x00000000000064ea       0x96 /Users/yeonwoo-kim/HealthHub/nacl_sdk/pepper_49/toolchain/mac_pnacl/bin/../x86_64-nacl/lib32/libcrt_common.a(lib_a-strncmp.o)
 .debug_loc     0x0000000000006580     0x2202 /Users/yeonwoo-kim/HealthHub/nacl_sdk/pepper_49/toolchain/mac_pnacl/bin/../x86_64-nacl/lib32/libcrt_common.a(lib_a-vfprintf.o)
 .debug_loc     0x0000000000008782      0x179 /Users/yeonwoo-kim/HealthHub/nacl_sdk/pepper_49/toolchain/mac_pnacl/bin/../x86_64-nacl/lib32/libcrt_common.a(lib_a-vsnprintf.o)
 .debug_loc     0x00000000000088fb       0xed /Users/yeonwoo-kim/HealthHub/nacl_sdk/pepper_49/toolchain/mac_pnacl/bin/../x86_64-nacl/lib32/libcrt_common.a(lib_a-vsprintf.o)
 .debug_loc     0x00000000000089e8      0x112 /Users/yeonwoo-kim/HealthHub/nacl_sdk/pepper_49/toolchain/mac_pnacl/bin/../x86_64-nacl/lib32/libcrt_common.a(lib_a-wcrtomb.o)
 .debug_loc     0x0000000000008afa       0xb4 /Users/yeonwoo-kim/HealthHub/nacl_sdk/pepper_49/toolchain/mac_pnacl/bin/../x86_64-nacl/lib32/libcrt_common.a(lib_a-wcsrtombs.o)
 .debug_loc     0x0000000000008bae      0x533 /Users/yeonwoo-kim/HealthHub/nacl_sdk/pepper_49/toolchain/mac_pnacl/bin/../x86_64-nacl/lib32/libcrt_common.a(lib_a-wctomb_r.o)
 .debug_loc     0x00000000000090e1       0x39 /Users/yeonwoo-kim/HealthHub/nacl_sdk/pepper_49/toolchain/mac_pnacl/bin/../x86_64-nacl/lib32/libcrt_common.a(lib_a-wsetup.o)
 .debug_loc     0x000000000000911a       0x75 /Users/yeonwoo-kim/HealthHub/nacl_sdk/pepper_49/toolchain/mac_pnacl/bin/../x86_64-nacl/lib32/libcrt_common.a(lib_a-__atexit.o)
 .debug_loc     0x000000000000918f       0xb6 /Users/yeonwoo-kim/HealthHub/nacl_sdk/pepper_49/toolchain/mac_pnacl/bin/../x86_64-nacl/lib32/libcrt_common.a(lib_a-__call_atexit.o)
 .debug_loc     0x0000000000009245     0x15a6 /Users/yeonwoo-kim/HealthHub/nacl_sdk/pepper_49/toolchain/mac_pnacl/bin/../x86_64-nacl/lib32/libcrt_common.a(lib_a-dtoa.o)
 .debug_loc     0x000000000000a7eb       0x28 /Users/yeonwoo-kim/HealthHub/nacl_sdk/pepper_49/toolchain/mac_pnacl/bin/../x86_64-nacl/lib32/libcrt_common.a(lib_a-envlock.o)
 .debug_loc     0x000000000000a813       0x78 /Users/yeonwoo-kim/HealthHub/nacl_sdk/pepper_49/toolchain/mac_pnacl/bin/../x86_64-nacl/lib32/libcrt_common.a(lib_a-fclose.o)
 .debug_loc     0x000000000000a88b      0x4f3 /Users/yeonwoo-kim/HealthHub/nacl_sdk/pepper_49/toolchain/mac_pnacl/bin/../x86_64-nacl/lib32/libcrt_common.a(lib_a-fvwrite.o)
 .debug_loc     0x000000000000ad7e      0x72b /Users/yeonwoo-kim/HealthHub/nacl_sdk/pepper_49/toolchain/mac_pnacl/bin/../x86_64-nacl/lib32/libcrt_common.a(lib_a-locale.o)
 .debug_loc     0x000000000000b4a9       0x63 /Users/yeonwoo-kim/HealthHub/nacl_sdk/pepper_49/toolchain/mac_pnacl/bin/../x86_64-nacl/lib32/libcrt_common.a(lib_a-makebuf.o)
 .debug_loc     0x000000000000b50c      0x8a5 /Users/yeonwoo-kim/HealthHub/nacl_sdk/pepper_49/toolchain/mac_pnacl/bin/../x86_64-nacl/lib32/libcrt_common.a(lib_a-mbtowc_r.o)
 .debug_loc     0x000000000000bdb1     0x1dfe /Users/yeonwoo-kim/HealthHub/nacl_sdk/pepper_49/toolchain/mac_pnacl/bin/../x86_64-nacl/lib32/libcrt_common.a(lib_a-mprec.o)
 .debug_loc     0x000000000000dbaf       0x28 /Users/yeonwoo-kim/HealthHub/nacl_sdk/pepper_49/toolchain/mac_pnacl/bin/../x86_64-nacl/lib32/libcrt_common.a(lib_a-s_fpclassify.o)
 .debug_loc     0x000000000000dbd7       0x90 /Users/yeonwoo-kim/HealthHub/nacl_sdk/pepper_49/toolchain/mac_pnacl/bin/../x86_64-nacl/lib32/libcrt_common.a(lib_a-s_frexp.o)
 .debug_loc     0x000000000000dc67       0xa8 /Users/yeonwoo-kim/HealthHub/nacl_sdk/pepper_49/toolchain/mac_pnacl/bin/../x86_64-nacl/lib32/libcrt_common.a(lib_a-strcasecmp.o)
 .debug_loc     0x000000000000dd0f       0xb4 /Users/yeonwoo-kim/HealthHub/nacl_sdk/pepper_49/toolchain/mac_pnacl/bin/../x86_64-nacl/lib32/libcrt_common.a(lib_a-strlcpy.o)
 .debug_loc     0x000000000000ddc3       0xa6 /Users/yeonwoo-kim/HealthHub/nacl_sdk/pepper_49/toolchain/mac_pnacl/bin/../x86_64-nacl/lib32/libcrt_common.a(lib_a-strncasecmp.o)
 .debug_loc     0x000000000000de69      0x15f /Users/yeonwoo-kim/HealthHub/nacl_sdk/pepper_49/toolchain/mac_pnacl/bin/../x86_64-nacl/lib32/libcrt_common.a(lib_a-strncpy.o)
 .debug_loc     0x000000000000dfc8      0x23d /Users/yeonwoo-kim/HealthHub/nacl_sdk/pepper_49/toolchain/mac_pnacl/bin/../x86_64-nacl/lib32/libcrt_common.a(lib_a-strtol.o)
 .debug_loc     0x000000000000e205     0x247c /Users/yeonwoo-kim/HealthHub/nacl_sdk/pepper_49/toolchain/mac_pnacl/bin/../x86_64-nacl/lib32/libcrt_common.a(lib_a-svfprintf.o)
 .debug_loc     0x0000000000010681     0x22c1 /Users/yeonwoo-kim/HealthHub/nacl_sdk/pepper_49/toolchain/mac_pnacl/bin/../x86_64-nacl/lib32/libcrt_common.a(lib_a-vfiprintf.o)
 .debug_loc     0x0000000000012942      0x206 /Users/yeonwoo-kim/HealthHub/nacl_sdk/pepper_49/toolchain/mac_pnacl/bin/../x86_64-nacl/lib32/libcrt_common.a(lib_a-wcsnrtombs.o)
 .debug_loc     0x0000000000012b48       0x14 /Users/yeonwoo-kim/HealthHub/nacl_sdk/pepper_49/toolchain/mac_pnacl/bin/../x86_64-nacl/lib32/libcrt_common.a(lib_a-ctype_.o)
 .debug_loc     0x0000000000012b5c      0x1a1 /Users/yeonwoo-kim/HealthHub/nacl_sdk/pepper_49/toolchain/mac_pnacl/bin/../x86_64-nacl/lib32/libcrt_common.a(lib_a-fputwc.o)
 .debug_loc     0x0000000000012cfd     0x1292 /Users/yeonwoo-kim/HealthHub/nacl_sdk/pepper_49/toolchain/mac_pnacl/bin/../x86_64-nacl/lib32/libcrt_common.a(lib_a-svfiprintf.o)
 .debug_loc     0x0000000000013f8f       0xa9 /Users/yeonwoo-kim/HealthHub/nacl_sdk/pepper_49/toolchain/mac_pnacl/bin/../x86_64-nacl/lib32/libcrt_common.a(lib_a-wbuf.o)
 .debug_loc     0x0000000000014038       0x33 /Users/yeonwoo-kim/HealthHub/nacl_sdk/pepper_49/toolchain/mac_pnacl/bin/../x86_64-nacl/lib32/libnacl.a(close.o)
 .debug_loc     0x000000000001406b       0x53 /Users/yeonwoo-kim/HealthHub/nacl_sdk/pepper_49/toolchain/mac_pnacl/bin/../x86_64-nacl/lib32/libnacl.a(fstat.o)
 .debug_loc     0x00000000000140be       0x3a /Users/yeonwoo-kim/HealthHub/nacl_sdk/pepper_49/toolchain/mac_pnacl/bin/../x86_64-nacl/lib32/libnacl.a(isatty.o)
 .debug_loc     0x00000000000140f8       0xab /Users/yeonwoo-kim/HealthHub/nacl_sdk/pepper_49/toolchain/mac_pnacl/bin/../x86_64-nacl/lib32/libnacl.a(lseek.o)
 .debug_loc     0x00000000000141a3       0x53 /Users/yeonwoo-kim/HealthHub/nacl_sdk/pepper_49/toolchain/mac_pnacl/bin/../x86_64-nacl/lib32/libnacl.a(nanosleep.o)
 .debug_loc     0x00000000000141f6        0x0 /Users/yeonwoo-kim/HealthHub/nacl_sdk/pepper_49/toolchain/mac_pnacl/bin/../x86_64-nacl/lib32/libnacl.a(nacl_irt_fdio.o)
 .debug_loc     0x00000000000141f6       0xab /Users/yeonwoo-kim/HealthHub/nacl_sdk/pepper_49/toolchain/mac_pnacl/bin/../x86_64-nacl/lib32/libnacl.a(read.o)
 .debug_loc     0x00000000000142a1     0x15bc /Users/yeonwoo-kim/HealthHub/nacl_sdk/pepper_49/toolchain/mac_pnacl/bin/../lib/clang/3.7.0/lib/i686-nacl/libgcc_eh.a(unwind-dw2-fde-glibc.o)

.debug_macinfo
 *(.debug_macinfo)

.debug_weaknames
 *(.debug_weaknames)

.debug_funcnames
 *(.debug_funcnames)

.debug_typenames
 *(.debug_typenames)

.debug_varnames
 *(.debug_varnames)

.debug_pubtypes
                0x0000000000000000     0x5a44
 *(.debug_pubtypes)
 .debug_pubtypes
                0x0000000000000000      0x254 clang-newlib/Release/debugging_x86_32.o
 .debug_pubtypes
                0x0000000000000254      0x184 /Users/yeonwoo-kim/HealthHub/nacl_sdk/pepper_49/lib/clang-newlib_x86_32/Release/liberror_handling.a(error_handling_x86_32.o)
 .debug_pubtypes
                0x00000000000003d8       0x6f /Users/yeonwoo-kim/HealthHub/nacl_sdk/pepper_49/lib/clang-newlib_x86_32/Release/liberror_handling.a(string_stream_x86_32.o)
 .debug_pubtypes
                0x0000000000000447       0x1a /Users/yeonwoo-kim/HealthHub/nacl_sdk/pepper_49/toolchain/mac_pnacl/bin/../x86_64-nacl/lib32/libppapi_stub.a(plugin_main_irt_21ce9d26.o)
 .debug_pubtypes
                0x0000000000000461       0x76 /Users/yeonwoo-kim/HealthHub/nacl_sdk/pepper_49/toolchain/mac_pnacl/bin/../x86_64-nacl/lib32/libppapi_stub.a(ppapi_plugin_main_399d0cf7.o)
 .debug_pubtypes
                0x00000000000004d7      0x14b /Users/yeonwoo-kim/HealthHub/nacl_sdk/pepper_49/toolchain/mac_pnacl/bin/../x86_64-nacl/lib32/libppapi_stub.a(ppapi_plugin_start_8da67623.o)
 .debug_pubtypes
                0x0000000000000622       0xe1 /Users/yeonwoo-kim/HealthHub/nacl_sdk/pepper_49/toolchain/mac_pnacl/bin/../x86_64-nacl/lib32/libppapi_stub.a(thread_creator_ccf263e1.o)
 .debug_pubtypes
                0x0000000000000703      0x265 /Users/yeonwoo-kim/HealthHub/nacl_sdk/pepper_49/toolchain/mac_pnacl/bin/../x86_64-nacl/lib32/libpthread.a(nc_thread.o)
 .debug_pubtypes
                0x0000000000000968      0x1d6 /Users/yeonwoo-kim/HealthHub/nacl_sdk/pepper_49/toolchain/mac_pnacl/bin/../x86_64-nacl/lib32/libpthread.a(nc_mutex.o)
 .debug_pubtypes
                0x0000000000000b3e      0x1b9 /Users/yeonwoo-kim/HealthHub/nacl_sdk/pepper_49/toolchain/mac_pnacl/bin/../x86_64-nacl/lib32/libpthread.a(nc_condvar.o)
 .debug_pubtypes
                0x0000000000000cf7       0x30 /Users/yeonwoo-kim/HealthHub/nacl_sdk/pepper_49/toolchain/mac_pnacl/bin/../x86_64-nacl/lib32/libpthread.a(valgrind_annotations.o)
 .debug_pubtypes
                0x0000000000000d27       0x7f /Users/yeonwoo-kim/HealthHub/nacl_sdk/pepper_49/toolchain/mac_pnacl/bin/../x86_64-nacl/lib32/libpthread.a(nc_init_irt.o)
 .debug_pubtypes
                0x0000000000000da6      0x212 /Users/yeonwoo-kim/HealthHub/nacl_sdk/pepper_49/toolchain/mac_pnacl/bin/../x86_64-nacl/lib32/libnacl.a(nacl_irt.o)
 .debug_pubtypes
                0x0000000000000fb8       0x1a /Users/yeonwoo-kim/HealthHub/nacl_sdk/pepper_49/toolchain/mac_pnacl/bin/../x86_64-nacl/lib32/libnacl.a(_exit.o)
 .debug_pubtypes
                0x0000000000000fd2       0x6b /Users/yeonwoo-kim/HealthHub/nacl_sdk/pepper_49/toolchain/mac_pnacl/bin/../x86_64-nacl/lib32/libnacl.a(mmap.o)
 .debug_pubtypes
                0x000000000000103d       0x36 /Users/yeonwoo-kim/HealthHub/nacl_sdk/pepper_49/toolchain/mac_pnacl/bin/../x86_64-nacl/lib32/libnacl.a(munmap.o)
 .debug_pubtypes
                0x0000000000001073       0x37 /Users/yeonwoo-kim/HealthHub/nacl_sdk/pepper_49/toolchain/mac_pnacl/bin/../x86_64-nacl/lib32/libnacl.a(nacl_interface_query.o)
 .debug_pubtypes
                0x00000000000010aa       0x36 /Users/yeonwoo-kim/HealthHub/nacl_sdk/pepper_49/toolchain/mac_pnacl/bin/../x86_64-nacl/lib32/libnacl.a(write.o)
 .debug_pubtypes
                0x00000000000010e0       0x1b /Users/yeonwoo-kim/HealthHub/nacl_sdk/pepper_49/toolchain/mac_pnacl/bin/../x86_64-nacl/lib32/libnacl.a(environ.o)
 .debug_pubtypes
                0x00000000000010fb      0x2b5 /Users/yeonwoo-kim/HealthHub/nacl_sdk/pepper_49/toolchain/mac_pnacl/bin/../x86_64-nacl/lib32/libnacl.a(malloc.o)
 .debug_pubtypes
                0x00000000000013b0       0xa6 /Users/yeonwoo-kim/HealthHub/nacl_sdk/pepper_49/toolchain/mac_pnacl/bin/../x86_64-nacl/lib32/libnacl.a(start.o)
 .debug_pubtypes
                0x0000000000001456       0x2e /Users/yeonwoo-kim/HealthHub/nacl_sdk/pepper_49/toolchain/mac_pnacl/bin/../x86_64-nacl/lib32/libnacl.a(pthread_initialize_minimal.o)
 .debug_pubtypes
                0x0000000000001484       0xcf /Users/yeonwoo-kim/HealthHub/nacl_sdk/pepper_49/toolchain/mac_pnacl/bin/../x86_64-nacl/lib32/libnacl.a(tls.o)
 .debug_pubtypes
                0x0000000000001553       0xeb /Users/yeonwoo-kim/HealthHub/nacl_sdk/pepper_49/toolchain/mac_pnacl/bin/../x86_64-nacl/lib32/libnacl.a(nacl_irt_init.o)
 .debug_pubtypes
                0x000000000000163e       0x1a /Users/yeonwoo-kim/HealthHub/nacl_sdk/pepper_49/toolchain/mac_pnacl/bin/../x86_64-nacl/lib32/libnacl.a(nacl_tls_init.o)
 .debug_pubtypes
                0x0000000000001658       0x1b /Users/yeonwoo-kim/HealthHub/nacl_sdk/pepper_49/toolchain/mac_pnacl/bin/../x86_64-nacl/lib32/libnacl.a(abort.o)
 .debug_pubtypes
                0x0000000000001673       0x1a /Users/yeonwoo-kim/HealthHub/nacl_sdk/pepper_49/toolchain/mac_pnacl/bin/../x86_64-nacl/lib32/libnacl.a(sched_yield.o)
 .debug_pubtypes
                0x000000000000168d       0x27 /Users/yeonwoo-kim/HealthHub/nacl_sdk/pepper_49/toolchain/mac_pnacl/bin/../x86_64-nacl/lib32/libnacl.a(sysconf.o)
 .debug_pubtypes
                0x00000000000016b4       0x2d /Users/yeonwoo-kim/HealthHub/nacl_sdk/pepper_49/toolchain/mac_pnacl/bin/../x86_64-nacl/lib32/libcrt_common.a(lib_a-atexit.o)
 .debug_pubtypes
                0x00000000000016e1       0x1a /Users/yeonwoo-kim/HealthHub/nacl_sdk/pepper_49/toolchain/mac_pnacl/bin/../x86_64-nacl/lib32/libcrt_common.a(lib_a-errno.o)
 .debug_pubtypes
                0x00000000000016fb       0x1a /Users/yeonwoo-kim/HealthHub/nacl_sdk/pepper_49/toolchain/mac_pnacl/bin/../x86_64-nacl/lib32/libcrt_common.a(lib_a-exit.o)
 .debug_pubtypes
                0x0000000000001715      0x1c8 /Users/yeonwoo-kim/HealthHub/nacl_sdk/pepper_49/toolchain/mac_pnacl/bin/../x86_64-nacl/lib32/libcrt_common.a(lib_a-fflush.o)
 .debug_pubtypes
                0x00000000000018dd      0x1db /Users/yeonwoo-kim/HealthHub/nacl_sdk/pepper_49/toolchain/mac_pnacl/bin/../x86_64-nacl/lib32/libcrt_common.a(lib_a-findfp.o)
 .debug_pubtypes
                0x0000000000001ab8       0x2e /Users/yeonwoo-kim/HealthHub/nacl_sdk/pepper_49/toolchain/mac_pnacl/bin/../x86_64-nacl/lib32/libcrt_common.a(lib_a-fini.o)
 .debug_pubtypes
                0x0000000000001ae6      0x1ea /Users/yeonwoo-kim/HealthHub/nacl_sdk/pepper_49/toolchain/mac_pnacl/bin/../x86_64-nacl/lib32/libcrt_common.a(lib_a-fprintf.o)
 .debug_pubtypes
                0x0000000000001cd0      0x1c8 /Users/yeonwoo-kim/HealthHub/nacl_sdk/pepper_49/toolchain/mac_pnacl/bin/../x86_64-nacl/lib32/libcrt_common.a(lib_a-fwalk.o)
 .debug_pubtypes
                0x0000000000001e98      0x1e9 /Users/yeonwoo-kim/HealthHub/nacl_sdk/pepper_49/toolchain/mac_pnacl/bin/../x86_64-nacl/lib32/libcrt_common.a(lib_a-fwrite.o)
 .debug_pubtypes
                0x0000000000002081       0x23 /Users/yeonwoo-kim/HealthHub/nacl_sdk/pepper_49/toolchain/mac_pnacl/bin/../x86_64-nacl/lib32/libcrt_common.a(lib_a-getenv.o)
 .debug_pubtypes
                0x00000000000020a4      0x1bf /Users/yeonwoo-kim/HealthHub/nacl_sdk/pepper_49/toolchain/mac_pnacl/bin/../x86_64-nacl/lib32/libcrt_common.a(lib_a-getenv_r.o)
 .debug_pubtypes
                0x0000000000002263      0x1bf /Users/yeonwoo-kim/HealthHub/nacl_sdk/pepper_49/toolchain/mac_pnacl/bin/../x86_64-nacl/lib32/libcrt_common.a(lib_a-impure.o)
 .debug_pubtypes
                0x0000000000002422       0x2e /Users/yeonwoo-kim/HealthHub/nacl_sdk/pepper_49/toolchain/mac_pnacl/bin/../x86_64-nacl/lib32/libcrt_common.a(lib_a-init.o)
 .debug_pubtypes
                0x0000000000002450       0x75 /Users/yeonwoo-kim/HealthHub/nacl_sdk/pepper_49/toolchain/mac_pnacl/bin/../x86_64-nacl/lib32/libcrt_common.a(lib_a-sleep.o)
 .debug_pubtypes
                0x00000000000024c5      0x1e1 /Users/yeonwoo-kim/HealthHub/nacl_sdk/pepper_49/toolchain/mac_pnacl/bin/../x86_64-nacl/lib32/libcrt_common.a(lib_a-stdio.o)
 .debug_pubtypes
                0x00000000000026a6       0x3e /Users/yeonwoo-kim/HealthHub/nacl_sdk/pepper_49/toolchain/mac_pnacl/bin/../x86_64-nacl/lib32/libcrt_common.a(lib_a-strcat.o)
 .debug_pubtypes
                0x00000000000026e4       0x58 /Users/yeonwoo-kim/HealthHub/nacl_sdk/pepper_49/toolchain/mac_pnacl/bin/../x86_64-nacl/lib32/libcrt_common.a(lib_a-strcmp.o)
 .debug_pubtypes
                0x000000000000273c       0x28 /Users/yeonwoo-kim/HealthHub/nacl_sdk/pepper_49/toolchain/mac_pnacl/bin/../x86_64-nacl/lib32/libcrt_common.a(lib_a-strcpy.o)
 .debug_pubtypes
                0x0000000000002764       0x74 /Users/yeonwoo-kim/HealthHub/nacl_sdk/pepper_49/toolchain/mac_pnacl/bin/../x86_64-nacl/lib32/libcrt_common.a(lib_a-strncmp.o)
 .debug_pubtypes
                0x00000000000027d8      0x295 /Users/yeonwoo-kim/HealthHub/nacl_sdk/pepper_49/toolchain/mac_pnacl/bin/../x86_64-nacl/lib32/libcrt_common.a(lib_a-vfprintf.o)
 .debug_pubtypes
                0x0000000000002a6d      0x1f5 /Users/yeonwoo-kim/HealthHub/nacl_sdk/pepper_49/toolchain/mac_pnacl/bin/../x86_64-nacl/lib32/libcrt_common.a(lib_a-vsnprintf.o)
 .debug_pubtypes
                0x0000000000002c62      0x1ea /Users/yeonwoo-kim/HealthHub/nacl_sdk/pepper_49/toolchain/mac_pnacl/bin/../x86_64-nacl/lib32/libcrt_common.a(lib_a-vsprintf.o)
 .debug_pubtypes
                0x0000000000002e4c      0x1e4 /Users/yeonwoo-kim/HealthHub/nacl_sdk/pepper_49/toolchain/mac_pnacl/bin/../x86_64-nacl/lib32/libcrt_common.a(lib_a-wcrtomb.o)
 .debug_pubtypes
                0x0000000000003030      0x1e4 /Users/yeonwoo-kim/HealthHub/nacl_sdk/pepper_49/toolchain/mac_pnacl/bin/../x86_64-nacl/lib32/libcrt_common.a(lib_a-wcsrtombs.o)
 .debug_pubtypes
                0x0000000000003214      0x1e4 /Users/yeonwoo-kim/HealthHub/nacl_sdk/pepper_49/toolchain/mac_pnacl/bin/../x86_64-nacl/lib32/libcrt_common.a(lib_a-wctomb_r.o)
 .debug_pubtypes
                0x00000000000033f8      0x1c8 /Users/yeonwoo-kim/HealthHub/nacl_sdk/pepper_49/toolchain/mac_pnacl/bin/../x86_64-nacl/lib32/libcrt_common.a(lib_a-wsetup.o)
 .debug_pubtypes
                0x00000000000035c0       0x6d /Users/yeonwoo-kim/HealthHub/nacl_sdk/pepper_49/toolchain/mac_pnacl/bin/../x86_64-nacl/lib32/libcrt_common.a(lib_a-__atexit.o)
 .debug_pubtypes
                0x000000000000362d       0x98 /Users/yeonwoo-kim/HealthHub/nacl_sdk/pepper_49/toolchain/mac_pnacl/bin/../x86_64-nacl/lib32/libcrt_common.a(lib_a-__call_atexit.o)
 .debug_pubtypes
                0x00000000000036c5      0x1ea /Users/yeonwoo-kim/HealthHub/nacl_sdk/pepper_49/toolchain/mac_pnacl/bin/../x86_64-nacl/lib32/libcrt_common.a(lib_a-dtoa.o)
 .debug_pubtypes
                0x00000000000038af      0x1bf /Users/yeonwoo-kim/HealthHub/nacl_sdk/pepper_49/toolchain/mac_pnacl/bin/../x86_64-nacl/lib32/libcrt_common.a(lib_a-envlock.o)
 .debug_pubtypes
                0x0000000000003a6e      0x1c8 /Users/yeonwoo-kim/HealthHub/nacl_sdk/pepper_49/toolchain/mac_pnacl/bin/../x86_64-nacl/lib32/libcrt_common.a(lib_a-fclose.o)
 .debug_pubtypes
                0x0000000000003c36      0x1e9 /Users/yeonwoo-kim/HealthHub/nacl_sdk/pepper_49/toolchain/mac_pnacl/bin/../x86_64-nacl/lib32/libcrt_common.a(lib_a-fvwrite.o)
 .debug_pubtypes
                0x0000000000003e1f      0x1ee /Users/yeonwoo-kim/HealthHub/nacl_sdk/pepper_49/toolchain/mac_pnacl/bin/../x86_64-nacl/lib32/libcrt_common.a(lib_a-locale.o)
 .debug_pubtypes
                0x000000000000400d      0x2ed /Users/yeonwoo-kim/HealthHub/nacl_sdk/pepper_49/toolchain/mac_pnacl/bin/../x86_64-nacl/lib32/libcrt_common.a(lib_a-makebuf.o)
 .debug_pubtypes
                0x00000000000042fa      0x213 /Users/yeonwoo-kim/HealthHub/nacl_sdk/pepper_49/toolchain/mac_pnacl/bin/../x86_64-nacl/lib32/libcrt_common.a(lib_a-mbtowc_r.o)
 .debug_pubtypes
                0x000000000000450d      0x1ea /Users/yeonwoo-kim/HealthHub/nacl_sdk/pepper_49/toolchain/mac_pnacl/bin/../x86_64-nacl/lib32/libcrt_common.a(lib_a-mprec.o)
 .debug_pubtypes
                0x00000000000046f7       0x60 /Users/yeonwoo-kim/HealthHub/nacl_sdk/pepper_49/toolchain/mac_pnacl/bin/../x86_64-nacl/lib32/libcrt_common.a(lib_a-s_fpclassify.o)
 .debug_pubtypes
                0x0000000000004757       0x6e /Users/yeonwoo-kim/HealthHub/nacl_sdk/pepper_49/toolchain/mac_pnacl/bin/../x86_64-nacl/lib32/libcrt_common.a(lib_a-s_frexp.o)
 .debug_pubtypes
                0x00000000000047c5       0x35 /Users/yeonwoo-kim/HealthHub/nacl_sdk/pepper_49/toolchain/mac_pnacl/bin/../x86_64-nacl/lib32/libcrt_common.a(lib_a-strcasecmp.o)
 .debug_pubtypes
                0x00000000000047fa       0x37 /Users/yeonwoo-kim/HealthHub/nacl_sdk/pepper_49/toolchain/mac_pnacl/bin/../x86_64-nacl/lib32/libcrt_common.a(lib_a-strlcpy.o)
 .debug_pubtypes
                0x0000000000004831       0x51 /Users/yeonwoo-kim/HealthHub/nacl_sdk/pepper_49/toolchain/mac_pnacl/bin/../x86_64-nacl/lib32/libcrt_common.a(lib_a-strncasecmp.o)
 .debug_pubtypes
                0x0000000000004882       0x44 /Users/yeonwoo-kim/HealthHub/nacl_sdk/pepper_49/toolchain/mac_pnacl/bin/../x86_64-nacl/lib32/libcrt_common.a(lib_a-strncpy.o)
 .debug_pubtypes
                0x00000000000048c6      0x1bf /Users/yeonwoo-kim/HealthHub/nacl_sdk/pepper_49/toolchain/mac_pnacl/bin/../x86_64-nacl/lib32/libcrt_common.a(lib_a-strtol.o)
 .debug_pubtypes
                0x0000000000004a85      0x295 /Users/yeonwoo-kim/HealthHub/nacl_sdk/pepper_49/toolchain/mac_pnacl/bin/../x86_64-nacl/lib32/libcrt_common.a(lib_a-svfprintf.o)
 .debug_pubtypes
                0x0000000000004d1a      0x26a /Users/yeonwoo-kim/HealthHub/nacl_sdk/pepper_49/toolchain/mac_pnacl/bin/../x86_64-nacl/lib32/libcrt_common.a(lib_a-vfiprintf.o)
 .debug_pubtypes
                0x0000000000004f84      0x1e4 /Users/yeonwoo-kim/HealthHub/nacl_sdk/pepper_49/toolchain/mac_pnacl/bin/../x86_64-nacl/lib32/libcrt_common.a(lib_a-wcsnrtombs.o)
 .debug_pubtypes
                0x0000000000005168       0x1b /Users/yeonwoo-kim/HealthHub/nacl_sdk/pepper_49/toolchain/mac_pnacl/bin/../x86_64-nacl/lib32/libcrt_common.a(lib_a-ctype_.o)
 .debug_pubtypes
                0x0000000000005183      0x1df /Users/yeonwoo-kim/HealthHub/nacl_sdk/pepper_49/toolchain/mac_pnacl/bin/../x86_64-nacl/lib32/libcrt_common.a(lib_a-fputwc.o)
 .debug_pubtypes
                0x0000000000005362      0x26a /Users/yeonwoo-kim/HealthHub/nacl_sdk/pepper_49/toolchain/mac_pnacl/bin/../x86_64-nacl/lib32/libcrt_common.a(lib_a-svfiprintf.o)
 .debug_pubtypes
                0x00000000000055cc      0x1c8 /Users/yeonwoo-kim/HealthHub/nacl_sdk/pepper_49/toolchain/mac_pnacl/bin/../x86_64-nacl/lib32/libcrt_common.a(lib_a-wbuf.o)
 .debug_pubtypes
                0x0000000000005794       0x1a /Users/yeonwoo-kim/HealthHub/nacl_sdk/pepper_49/toolchain/mac_pnacl/bin/../x86_64-nacl/lib32/libnacl.a(close.o)
 .debug_pubtypes
                0x00000000000057ae      0x18b /Users/yeonwoo-kim/HealthHub/nacl_sdk/pepper_49/toolchain/mac_pnacl/bin/../x86_64-nacl/lib32/libnacl.a(fstat.o)
 .debug_pubtypes
                0x0000000000005939       0x1a /Users/yeonwoo-kim/HealthHub/nacl_sdk/pepper_49/toolchain/mac_pnacl/bin/../x86_64-nacl/lib32/libnacl.a(isatty.o)
 .debug_pubtypes
                0x0000000000005953       0x4f /Users/yeonwoo-kim/HealthHub/nacl_sdk/pepper_49/toolchain/mac_pnacl/bin/../x86_64-nacl/lib32/libnacl.a(lseek.o)
 .debug_pubtypes
                0x00000000000059a2       0x6c /Users/yeonwoo-kim/HealthHub/nacl_sdk/pepper_49/toolchain/mac_pnacl/bin/../x86_64-nacl/lib32/libnacl.a(nanosleep.o)
 .debug_pubtypes
                0x0000000000005a0e       0x36 /Users/yeonwoo-kim/HealthHub/nacl_sdk/pepper_49/toolchain/mac_pnacl/bin/../x86_64-nacl/lib32/libnacl.a(read.o)

.debug_ranges   0x0000000000000000     0x2380
 *(.debug_ranges)
 .debug_ranges  0x0000000000000000       0x30 clang-newlib/Release/debugging_x86_32.o
 .debug_ranges  0x0000000000000030       0x18 /Users/yeonwoo-kim/HealthHub/nacl_sdk/pepper_49/lib/clang-newlib_x86_32/Release/liberror_handling.a(error_handling_x86_32.o)
 .debug_ranges  0x0000000000000048        0x0 /Users/yeonwoo-kim/HealthHub/nacl_sdk/pepper_49/lib/clang-newlib_x86_32/Release/liberror_handling.a(string_stream_x86_32.o)
 .debug_ranges  0x0000000000000048        0x0 /Users/yeonwoo-kim/HealthHub/nacl_sdk/pepper_49/toolchain/mac_pnacl/bin/../x86_64-nacl/lib32/libppapi_stub.a(plugin_main_irt_21ce9d26.o)
 .debug_ranges  0x0000000000000048        0x0 /Users/yeonwoo-kim/HealthHub/nacl_sdk/pepper_49/toolchain/mac_pnacl/bin/../x86_64-nacl/lib32/libppapi_stub.a(ppapi_plugin_main_399d0cf7.o)
 .debug_ranges  0x0000000000000048        0x0 /Users/yeonwoo-kim/HealthHub/nacl_sdk/pepper_49/toolchain/mac_pnacl/bin/../x86_64-nacl/lib32/libppapi_stub.a(ppapi_plugin_start_8da67623.o)
 .debug_ranges  0x0000000000000048        0x0 /Users/yeonwoo-kim/HealthHub/nacl_sdk/pepper_49/toolchain/mac_pnacl/bin/../x86_64-nacl/lib32/libppapi_stub.a(thread_creator_ccf263e1.o)
 .debug_ranges  0x0000000000000048      0x128 /Users/yeonwoo-kim/HealthHub/nacl_sdk/pepper_49/toolchain/mac_pnacl/bin/../x86_64-nacl/lib32/libpthread.a(nc_thread.o)
 .debug_ranges  0x0000000000000170       0xc0 /Users/yeonwoo-kim/HealthHub/nacl_sdk/pepper_49/toolchain/mac_pnacl/bin/../x86_64-nacl/lib32/libpthread.a(nc_mutex.o)
 .debug_ranges  0x0000000000000230        0x0 /Users/yeonwoo-kim/HealthHub/nacl_sdk/pepper_49/toolchain/mac_pnacl/bin/../x86_64-nacl/lib32/libpthread.a(nc_condvar.o)
 .debug_ranges  0x0000000000000230        0x0 /Users/yeonwoo-kim/HealthHub/nacl_sdk/pepper_49/toolchain/mac_pnacl/bin/../x86_64-nacl/lib32/libpthread.a(valgrind_annotations.o)
 .debug_ranges  0x0000000000000230        0x0 /Users/yeonwoo-kim/HealthHub/nacl_sdk/pepper_49/toolchain/mac_pnacl/bin/../x86_64-nacl/lib32/libpthread.a(nc_init_irt.o)
 .debug_ranges  0x0000000000000230       0x18 /Users/yeonwoo-kim/HealthHub/nacl_sdk/pepper_49/toolchain/mac_pnacl/bin/../x86_64-nacl/lib32/libnacl.a(nacl_irt.o)
 .debug_ranges  0x0000000000000248        0x0 /Users/yeonwoo-kim/HealthHub/nacl_sdk/pepper_49/toolchain/mac_pnacl/bin/../x86_64-nacl/lib32/libnacl.a(_exit.o)
 .debug_ranges  0x0000000000000248        0x0 /Users/yeonwoo-kim/HealthHub/nacl_sdk/pepper_49/toolchain/mac_pnacl/bin/../x86_64-nacl/lib32/libnacl.a(mmap.o)
 .debug_ranges  0x0000000000000248        0x0 /Users/yeonwoo-kim/HealthHub/nacl_sdk/pepper_49/toolchain/mac_pnacl/bin/../x86_64-nacl/lib32/libnacl.a(munmap.o)
 .debug_ranges  0x0000000000000248        0x0 /Users/yeonwoo-kim/HealthHub/nacl_sdk/pepper_49/toolchain/mac_pnacl/bin/../x86_64-nacl/lib32/libnacl.a(nacl_interface_query.o)
 .debug_ranges  0x0000000000000248        0x0 /Users/yeonwoo-kim/HealthHub/nacl_sdk/pepper_49/toolchain/mac_pnacl/bin/../x86_64-nacl/lib32/libnacl.a(write.o)
 .debug_ranges  0x0000000000000248        0x0 /Users/yeonwoo-kim/HealthHub/nacl_sdk/pepper_49/toolchain/mac_pnacl/bin/../x86_64-nacl/lib32/libnacl.a(environ.o)
 .debug_ranges  0x0000000000000248     0x1268 /Users/yeonwoo-kim/HealthHub/nacl_sdk/pepper_49/toolchain/mac_pnacl/bin/../x86_64-nacl/lib32/libnacl.a(malloc.o)
 .debug_ranges  0x00000000000014b0        0x0 /Users/yeonwoo-kim/HealthHub/nacl_sdk/pepper_49/toolchain/mac_pnacl/bin/../x86_64-nacl/lib32/libnacl.a(start.o)
 .debug_ranges  0x00000000000014b0        0x0 /Users/yeonwoo-kim/HealthHub/nacl_sdk/pepper_49/toolchain/mac_pnacl/bin/../x86_64-nacl/lib32/libnacl.a(nacl_read_tp.o)
 .debug_ranges  0x00000000000014b0        0x0 /Users/yeonwoo-kim/HealthHub/nacl_sdk/pepper_49/toolchain/mac_pnacl/bin/../x86_64-nacl/lib32/libnacl.a(pthread_initialize_minimal.o)
 .debug_ranges  0x00000000000014b0       0xe0 /Users/yeonwoo-kim/HealthHub/nacl_sdk/pepper_49/toolchain/mac_pnacl/bin/../x86_64-nacl/lib32/libnacl.a(tls.o)
 .debug_ranges  0x0000000000001590        0x0 /Users/yeonwoo-kim/HealthHub/nacl_sdk/pepper_49/toolchain/mac_pnacl/bin/../x86_64-nacl/lib32/libnacl.a(nacl_irt_init.o)
 .debug_ranges  0x0000000000001590        0x0 /Users/yeonwoo-kim/HealthHub/nacl_sdk/pepper_49/toolchain/mac_pnacl/bin/../x86_64-nacl/lib32/libnacl.a(nacl_tls_get.o)
 .debug_ranges  0x0000000000001590        0x0 /Users/yeonwoo-kim/HealthHub/nacl_sdk/pepper_49/toolchain/mac_pnacl/bin/../x86_64-nacl/lib32/libnacl.a(nacl_tls_init.o)
 .debug_ranges  0x0000000000001590        0x0 /Users/yeonwoo-kim/HealthHub/nacl_sdk/pepper_49/toolchain/mac_pnacl/bin/../x86_64-nacl/lib32/libnacl.a(abort.o)
 .debug_ranges  0x0000000000001590        0x0 /Users/yeonwoo-kim/HealthHub/nacl_sdk/pepper_49/toolchain/mac_pnacl/bin/../x86_64-nacl/lib32/libnacl.a(sched_yield.o)
 .debug_ranges  0x0000000000001590        0x0 /Users/yeonwoo-kim/HealthHub/nacl_sdk/pepper_49/toolchain/mac_pnacl/bin/../x86_64-nacl/lib32/libnacl.a(sysconf.o)
 .debug_ranges  0x0000000000001590        0x0 /Users/yeonwoo-kim/HealthHub/nacl_sdk/pepper_49/toolchain/mac_pnacl/bin/../x86_64-nacl/lib32/libcrt_common.a(lib_a-atexit.o)
 .debug_ranges  0x0000000000001590        0x0 /Users/yeonwoo-kim/HealthHub/nacl_sdk/pepper_49/toolchain/mac_pnacl/bin/../x86_64-nacl/lib32/libcrt_common.a(lib_a-errno.o)
 .debug_ranges  0x0000000000001590        0x0 /Users/yeonwoo-kim/HealthHub/nacl_sdk/pepper_49/toolchain/mac_pnacl/bin/../x86_64-nacl/lib32/libcrt_common.a(lib_a-exit.o)
 .debug_ranges  0x0000000000001590       0x58 /Users/yeonwoo-kim/HealthHub/nacl_sdk/pepper_49/toolchain/mac_pnacl/bin/../x86_64-nacl/lib32/libcrt_common.a(lib_a-fflush.o)
 .debug_ranges  0x00000000000015e8       0x88 /Users/yeonwoo-kim/HealthHub/nacl_sdk/pepper_49/toolchain/mac_pnacl/bin/../x86_64-nacl/lib32/libcrt_common.a(lib_a-findfp.o)
 .debug_ranges  0x0000000000001670        0x0 /Users/yeonwoo-kim/HealthHub/nacl_sdk/pepper_49/toolchain/mac_pnacl/bin/../x86_64-nacl/lib32/libcrt_common.a(lib_a-fini.o)
 .debug_ranges  0x0000000000001670       0x18 /Users/yeonwoo-kim/HealthHub/nacl_sdk/pepper_49/toolchain/mac_pnacl/bin/../x86_64-nacl/lib32/libcrt_common.a(lib_a-fprintf.o)
 .debug_ranges  0x0000000000001688       0x30 /Users/yeonwoo-kim/HealthHub/nacl_sdk/pepper_49/toolchain/mac_pnacl/bin/../x86_64-nacl/lib32/libcrt_common.a(lib_a-fwalk.o)
 .debug_ranges  0x00000000000016b8       0x18 /Users/yeonwoo-kim/HealthHub/nacl_sdk/pepper_49/toolchain/mac_pnacl/bin/../x86_64-nacl/lib32/libcrt_common.a(lib_a-fwrite.o)
 .debug_ranges  0x00000000000016d0       0x18 /Users/yeonwoo-kim/HealthHub/nacl_sdk/pepper_49/toolchain/mac_pnacl/bin/../x86_64-nacl/lib32/libcrt_common.a(lib_a-getenv.o)
 .debug_ranges  0x00000000000016e8       0x18 /Users/yeonwoo-kim/HealthHub/nacl_sdk/pepper_49/toolchain/mac_pnacl/bin/../x86_64-nacl/lib32/libcrt_common.a(lib_a-getenv_r.o)
 .debug_ranges  0x0000000000001700       0x18 /Users/yeonwoo-kim/HealthHub/nacl_sdk/pepper_49/toolchain/mac_pnacl/bin/../x86_64-nacl/lib32/libcrt_common.a(lib_a-impure.o)
 .debug_ranges  0x0000000000001718        0x0 /Users/yeonwoo-kim/HealthHub/nacl_sdk/pepper_49/toolchain/mac_pnacl/bin/../x86_64-nacl/lib32/libcrt_common.a(lib_a-init.o)
 .debug_ranges  0x0000000000001718        0x0 /Users/yeonwoo-kim/HealthHub/nacl_sdk/pepper_49/toolchain/mac_pnacl/bin/../x86_64-nacl/lib32/libcrt_common.a(lib_a-sleep.o)
 .debug_ranges  0x0000000000001718       0x30 /Users/yeonwoo-kim/HealthHub/nacl_sdk/pepper_49/toolchain/mac_pnacl/bin/../x86_64-nacl/lib32/libcrt_common.a(lib_a-stdio.o)
 .debug_ranges  0x0000000000001748        0x0 /Users/yeonwoo-kim/HealthHub/nacl_sdk/pepper_49/toolchain/mac_pnacl/bin/../x86_64-nacl/lib32/libcrt_common.a(lib_a-strcat.o)
 .debug_ranges  0x0000000000001748        0x0 /Users/yeonwoo-kim/HealthHub/nacl_sdk/pepper_49/toolchain/mac_pnacl/bin/../x86_64-nacl/lib32/libcrt_common.a(lib_a-strcmp.o)
 .debug_ranges  0x0000000000001748        0x0 /Users/yeonwoo-kim/HealthHub/nacl_sdk/pepper_49/toolchain/mac_pnacl/bin/../x86_64-nacl/lib32/libcrt_common.a(lib_a-strcpy.o)
 .debug_ranges  0x0000000000001748        0x0 /Users/yeonwoo-kim/HealthHub/nacl_sdk/pepper_49/toolchain/mac_pnacl/bin/../x86_64-nacl/lib32/libcrt_common.a(lib_a-strncmp.o)
 .debug_ranges  0x0000000000001748      0x140 /Users/yeonwoo-kim/HealthHub/nacl_sdk/pepper_49/toolchain/mac_pnacl/bin/../x86_64-nacl/lib32/libcrt_common.a(lib_a-vfprintf.o)
 .debug_ranges  0x0000000000001888       0x18 /Users/yeonwoo-kim/HealthHub/nacl_sdk/pepper_49/toolchain/mac_pnacl/bin/../x86_64-nacl/lib32/libcrt_common.a(lib_a-vsnprintf.o)
 .debug_ranges  0x00000000000018a0       0x18 /Users/yeonwoo-kim/HealthHub/nacl_sdk/pepper_49/toolchain/mac_pnacl/bin/../x86_64-nacl/lib32/libcrt_common.a(lib_a-vsprintf.o)
 .debug_ranges  0x00000000000018b8       0x18 /Users/yeonwoo-kim/HealthHub/nacl_sdk/pepper_49/toolchain/mac_pnacl/bin/../x86_64-nacl/lib32/libcrt_common.a(lib_a-wcrtomb.o)
 .debug_ranges  0x00000000000018d0       0x18 /Users/yeonwoo-kim/HealthHub/nacl_sdk/pepper_49/toolchain/mac_pnacl/bin/../x86_64-nacl/lib32/libcrt_common.a(lib_a-wcsrtombs.o)
 .debug_ranges  0x00000000000018e8       0x38 /Users/yeonwoo-kim/HealthHub/nacl_sdk/pepper_49/toolchain/mac_pnacl/bin/../x86_64-nacl/lib32/libcrt_common.a(lib_a-wctomb_r.o)
 .debug_ranges  0x0000000000001920        0x0 /Users/yeonwoo-kim/HealthHub/nacl_sdk/pepper_49/toolchain/mac_pnacl/bin/../x86_64-nacl/lib32/libcrt_common.a(lib_a-wsetup.o)
 .debug_ranges  0x0000000000001920        0x0 /Users/yeonwoo-kim/HealthHub/nacl_sdk/pepper_49/toolchain/mac_pnacl/bin/../x86_64-nacl/lib32/libcrt_common.a(lib_a-__atexit.o)
 .debug_ranges  0x0000000000001920        0x0 /Users/yeonwoo-kim/HealthHub/nacl_sdk/pepper_49/toolchain/mac_pnacl/bin/../x86_64-nacl/lib32/libcrt_common.a(lib_a-__call_atexit.o)
 .debug_ranges  0x0000000000001920       0x18 /Users/yeonwoo-kim/HealthHub/nacl_sdk/pepper_49/toolchain/mac_pnacl/bin/../x86_64-nacl/lib32/libcrt_common.a(lib_a-dtoa.o)
 .debug_ranges  0x0000000000001938       0x18 /Users/yeonwoo-kim/HealthHub/nacl_sdk/pepper_49/toolchain/mac_pnacl/bin/../x86_64-nacl/lib32/libcrt_common.a(lib_a-envlock.o)
 .debug_ranges  0x0000000000001950       0x18 /Users/yeonwoo-kim/HealthHub/nacl_sdk/pepper_49/toolchain/mac_pnacl/bin/../x86_64-nacl/lib32/libcrt_common.a(lib_a-fclose.o)
 .debug_ranges  0x0000000000001968       0x20 /Users/yeonwoo-kim/HealthHub/nacl_sdk/pepper_49/toolchain/mac_pnacl/bin/../x86_64-nacl/lib32/libcrt_common.a(lib_a-fvwrite.o)
 .debug_ranges  0x0000000000001988       0x58 /Users/yeonwoo-kim/HealthHub/nacl_sdk/pepper_49/toolchain/mac_pnacl/bin/../x86_64-nacl/lib32/libcrt_common.a(lib_a-locale.o)
 .debug_ranges  0x00000000000019e0        0x0 /Users/yeonwoo-kim/HealthHub/nacl_sdk/pepper_49/toolchain/mac_pnacl/bin/../x86_64-nacl/lib32/libcrt_common.a(lib_a-makebuf.o)
 .debug_ranges  0x00000000000019e0       0x78 /Users/yeonwoo-kim/HealthHub/nacl_sdk/pepper_49/toolchain/mac_pnacl/bin/../x86_64-nacl/lib32/libcrt_common.a(lib_a-mbtowc_r.o)
 .debug_ranges  0x0000000000001a58      0x208 /Users/yeonwoo-kim/HealthHub/nacl_sdk/pepper_49/toolchain/mac_pnacl/bin/../x86_64-nacl/lib32/libcrt_common.a(lib_a-mprec.o)
 .debug_ranges  0x0000000000001c60        0x0 /Users/yeonwoo-kim/HealthHub/nacl_sdk/pepper_49/toolchain/mac_pnacl/bin/../x86_64-nacl/lib32/libcrt_common.a(lib_a-s_fpclassify.o)
 .debug_ranges  0x0000000000001c60        0x0 /Users/yeonwoo-kim/HealthHub/nacl_sdk/pepper_49/toolchain/mac_pnacl/bin/../x86_64-nacl/lib32/libcrt_common.a(lib_a-s_frexp.o)
 .debug_ranges  0x0000000000001c60       0x30 /Users/yeonwoo-kim/HealthHub/nacl_sdk/pepper_49/toolchain/mac_pnacl/bin/../x86_64-nacl/lib32/libcrt_common.a(lib_a-strcasecmp.o)
 .debug_ranges  0x0000000000001c90        0x0 /Users/yeonwoo-kim/HealthHub/nacl_sdk/pepper_49/toolchain/mac_pnacl/bin/../x86_64-nacl/lib32/libcrt_common.a(lib_a-strlcpy.o)
 .debug_ranges  0x0000000000001c90       0x30 /Users/yeonwoo-kim/HealthHub/nacl_sdk/pepper_49/toolchain/mac_pnacl/bin/../x86_64-nacl/lib32/libcrt_common.a(lib_a-strncasecmp.o)
 .debug_ranges  0x0000000000001cc0        0x0 /Users/yeonwoo-kim/HealthHub/nacl_sdk/pepper_49/toolchain/mac_pnacl/bin/../x86_64-nacl/lib32/libcrt_common.a(lib_a-strncpy.o)
 .debug_ranges  0x0000000000001cc0       0x18 /Users/yeonwoo-kim/HealthHub/nacl_sdk/pepper_49/toolchain/mac_pnacl/bin/../x86_64-nacl/lib32/libcrt_common.a(lib_a-strtol.o)
 .debug_ranges  0x0000000000001cd8      0x110 /Users/yeonwoo-kim/HealthHub/nacl_sdk/pepper_49/toolchain/mac_pnacl/bin/../x86_64-nacl/lib32/libcrt_common.a(lib_a-svfprintf.o)
 .debug_ranges  0x0000000000001de8      0x1f0 /Users/yeonwoo-kim/HealthHub/nacl_sdk/pepper_49/toolchain/mac_pnacl/bin/../x86_64-nacl/lib32/libcrt_common.a(lib_a-vfiprintf.o)
 .debug_ranges  0x0000000000001fd8       0x30 /Users/yeonwoo-kim/HealthHub/nacl_sdk/pepper_49/toolchain/mac_pnacl/bin/../x86_64-nacl/lib32/libcrt_common.a(lib_a-wcsnrtombs.o)
 .debug_ranges  0x0000000000002008        0x0 /Users/yeonwoo-kim/HealthHub/nacl_sdk/pepper_49/toolchain/mac_pnacl/bin/../x86_64-nacl/lib32/libcrt_common.a(lib_a-ctype_.o)
 .debug_ranges  0x0000000000002008       0x30 /Users/yeonwoo-kim/HealthHub/nacl_sdk/pepper_49/toolchain/mac_pnacl/bin/../x86_64-nacl/lib32/libcrt_common.a(lib_a-fputwc.o)
 .debug_ranges  0x0000000000002038       0x78 /Users/yeonwoo-kim/HealthHub/nacl_sdk/pepper_49/toolchain/mac_pnacl/bin/../x86_64-nacl/lib32/libcrt_common.a(lib_a-svfiprintf.o)
 .debug_ranges  0x00000000000020b0       0x18 /Users/yeonwoo-kim/HealthHub/nacl_sdk/pepper_49/toolchain/mac_pnacl/bin/../x86_64-nacl/lib32/libcrt_common.a(lib_a-wbuf.o)
 .debug_ranges  0x00000000000020c8        0x0 /Users/yeonwoo-kim/HealthHub/nacl_sdk/pepper_49/toolchain/mac_pnacl/bin/../x86_64-nacl/lib32/libnacl.a(close.o)
 .debug_ranges  0x00000000000020c8        0x0 /Users/yeonwoo-kim/HealthHub/nacl_sdk/pepper_49/toolchain/mac_pnacl/bin/../x86_64-nacl/lib32/libnacl.a(fstat.o)
 .debug_ranges  0x00000000000020c8        0x0 /Users/yeonwoo-kim/HealthHub/nacl_sdk/pepper_49/toolchain/mac_pnacl/bin/../x86_64-nacl/lib32/libnacl.a(isatty.o)
 .debug_ranges  0x00000000000020c8        0x0 /Users/yeonwoo-kim/HealthHub/nacl_sdk/pepper_49/toolchain/mac_pnacl/bin/../x86_64-nacl/lib32/libnacl.a(lseek.o)
 .debug_ranges  0x00000000000020c8        0x0 /Users/yeonwoo-kim/HealthHub/nacl_sdk/pepper_49/toolchain/mac_pnacl/bin/../x86_64-nacl/lib32/libnacl.a(nanosleep.o)
 .debug_ranges  0x00000000000020c8        0x0 /Users/yeonwoo-kim/HealthHub/nacl_sdk/pepper_49/toolchain/mac_pnacl/bin/../x86_64-nacl/lib32/libnacl.a(nacl_irt_fdio.o)
 .debug_ranges  0x00000000000020c8        0x0 /Users/yeonwoo-kim/HealthHub/nacl_sdk/pepper_49/toolchain/mac_pnacl/bin/../x86_64-nacl/lib32/libnacl.a(read.o)
 .debug_ranges  0x00000000000020c8      0x2b8 /Users/yeonwoo-kim/HealthHub/nacl_sdk/pepper_49/toolchain/mac_pnacl/bin/../lib/clang/3.7.0/lib/i686-nacl/libgcc_eh.a(unwind-dw2-fde-glibc.o)

.debug_macro
 *(.debug_macro)

.gnu.attributes
 *(.gnu.attributes)

/DISCARD/
 *(.note.GNU-stack)
 *(.gnu_debuglink)
 *(.gnu.lto_*)
OUTPUT(clang-newlib/Release/debugging_unstripped_x86_32.nexe elf32-i386-nacl)
